Archive member included to satisfy reference by file (symbol)

C:/Users/lenovo/Downloads/x86_64-15.1.0-release-win32-seh-ucrt-rt_v12-rev0/mingw64/bin/../lib/gcc/x86_64-w64-mingw32/15.1.0/libstdc++.dll.a(libstdc___6_dll_d005600.o)
                              build/o/test.o (std::basic_ostream<char, std::char_traits<char> >& std::endl<char, std::char_traits<char> >(std::basic_ostream<char, std::char_traits<char> >&))
C:/Users/lenovo/Downloads/x86_64-15.1.0-release-win32-seh-ucrt-rt_v12-rev0/mingw64/bin/../lib/gcc/x86_64-w64-mingw32/15.1.0/libstdc++.dll.a(libstdc___6_dll_d005599.o)
                              build/o/test.o (std::cout)
C:/Users/lenovo/Downloads/x86_64-15.1.0-release-win32-seh-ucrt-rt_v12-rev0/mingw64/bin/../lib/gcc/x86_64-w64-mingw32/15.1.0/libstdc++.dll.a(libstdc___6_dll_d001926.o)
                              build/o/test.o (std::ostream::operator<<(int))
C:/Users/lenovo/Downloads/x86_64-15.1.0-release-win32-seh-ucrt-rt_v12-rev0/mingw64/bin/../lib/gcc/x86_64-w64-mingw32/15.1.0/libstdc++.dll.a(libstdc___6_dll_d001917.o)
                              build/o/test.o (std::ostream::operator<<(std::ostream& (*)(std::ostream&)))
C:/Users/lenovo/Downloads/x86_64-15.1.0-release-win32-seh-ucrt-rt_v12-rev0/mingw64/bin/../lib/gcc/x86_64-w64-mingw32/15.1.0/libstdc++.dll.a(libstdc___6_dll_d000000.o)
                              C:/Users/lenovo/Downloads/x86_64-15.1.0-release-win32-seh-ucrt-rt_v12-rev0/mingw64/bin/../lib/gcc/x86_64-w64-mingw32/15.1.0/libstdc++.dll.a(libstdc___6_dll_d005600.o) (_head_libstdc___6_dll)
C:/Users/lenovo/Downloads/x86_64-15.1.0-release-win32-seh-ucrt-rt_v12-rev0/mingw64/bin/../lib/gcc/x86_64-w64-mingw32/15.1.0/libstdc++.dll.a(libstdc___6_dll_d006872.o)
                              C:/Users/lenovo/Downloads/x86_64-15.1.0-release-win32-seh-ucrt-rt_v12-rev0/mingw64/bin/../lib/gcc/x86_64-w64-mingw32/15.1.0/libstdc++.dll.a(libstdc___6_dll_d000000.o) (libstdc___6_dll_iname)
C:/Users/lenovo/Downloads/x86_64-15.1.0-release-win32-seh-ucrt-rt_v12-rev0/mingw64/bin/../lib/gcc/x86_64-w64-mingw32/15.1.0/../../../../x86_64-w64-mingw32/lib/../lib/libmingw32.a(lib64_libmingw32_a-gccmain.o)
                              C:/Users/lenovo/Downloads/x86_64-15.1.0-release-win32-seh-ucrt-rt_v12-rev0/mingw64/bin/../lib/gcc/x86_64-w64-mingw32/15.1.0/../../../../x86_64-w64-mingw32/lib/../lib/crt2.o (__main)
C:/Users/lenovo/Downloads/x86_64-15.1.0-release-win32-seh-ucrt-rt_v12-rev0/mingw64/bin/../lib/gcc/x86_64-w64-mingw32/15.1.0/../../../../x86_64-w64-mingw32/lib/../lib/libmingw32.a(lib64_libmingw32_a-natstart.o)
                              C:/Users/lenovo/Downloads/x86_64-15.1.0-release-win32-seh-ucrt-rt_v12-rev0/mingw64/bin/../lib/gcc/x86_64-w64-mingw32/15.1.0/../../../../x86_64-w64-mingw32/lib/../lib/crt2.o (__native_startup_lock)
C:/Users/lenovo/Downloads/x86_64-15.1.0-release-win32-seh-ucrt-rt_v12-rev0/mingw64/bin/../lib/gcc/x86_64-w64-mingw32/15.1.0/../../../../x86_64-w64-mingw32/lib/../lib/libmingw32.a(lib64_libmingw32_a-wildcard.o)
                              C:/Users/lenovo/Downloads/x86_64-15.1.0-release-win32-seh-ucrt-rt_v12-rev0/mingw64/bin/../lib/gcc/x86_64-w64-mingw32/15.1.0/../../../../x86_64-w64-mingw32/lib/../lib/crt2.o (_dowildcard)
C:/Users/lenovo/Downloads/x86_64-15.1.0-release-win32-seh-ucrt-rt_v12-rev0/mingw64/bin/../lib/gcc/x86_64-w64-mingw32/15.1.0/../../../../x86_64-w64-mingw32/lib/../lib/libmingw32.a(lib64_libmingw32_a-dllargv.o)
                              C:/Users/lenovo/Downloads/x86_64-15.1.0-release-win32-seh-ucrt-rt_v12-rev0/mingw64/bin/../lib/gcc/x86_64-w64-mingw32/15.1.0/../../../../x86_64-w64-mingw32/lib/../lib/crt2.o (_setargv)
C:/Users/lenovo/Downloads/x86_64-15.1.0-release-win32-seh-ucrt-rt_v12-rev0/mingw64/bin/../lib/gcc/x86_64-w64-mingw32/15.1.0/../../../../x86_64-w64-mingw32/lib/../lib/libmingw32.a(lib64_libmingw32_a-_newmode.o)
                              C:/Users/lenovo/Downloads/x86_64-15.1.0-release-win32-seh-ucrt-rt_v12-rev0/mingw64/bin/../lib/gcc/x86_64-w64-mingw32/15.1.0/../../../../x86_64-w64-mingw32/lib/../lib/crt2.o (_newmode)
C:/Users/lenovo/Downloads/x86_64-15.1.0-release-win32-seh-ucrt-rt_v12-rev0/mingw64/bin/../lib/gcc/x86_64-w64-mingw32/15.1.0/../../../../x86_64-w64-mingw32/lib/../lib/libmingw32.a(lib64_libmingw32_a-tlssup.o)
                              C:/Users/lenovo/Downloads/x86_64-15.1.0-release-win32-seh-ucrt-rt_v12-rev0/mingw64/bin/../lib/gcc/x86_64-w64-mingw32/15.1.0/../../../../x86_64-w64-mingw32/lib/../lib/crt2.o (__mingw_initltssuo_force)
C:/Users/lenovo/Downloads/x86_64-15.1.0-release-win32-seh-ucrt-rt_v12-rev0/mingw64/bin/../lib/gcc/x86_64-w64-mingw32/15.1.0/../../../../x86_64-w64-mingw32/lib/../lib/libmingw32.a(lib64_libmingw32_a-xncommod.o)
                              C:/Users/lenovo/Downloads/x86_64-15.1.0-release-win32-seh-ucrt-rt_v12-rev0/mingw64/bin/../lib/gcc/x86_64-w64-mingw32/15.1.0/../../../../x86_64-w64-mingw32/lib/../lib/crt2.o (_commode)
C:/Users/lenovo/Downloads/x86_64-15.1.0-release-win32-seh-ucrt-rt_v12-rev0/mingw64/bin/../lib/gcc/x86_64-w64-mingw32/15.1.0/../../../../x86_64-w64-mingw32/lib/../lib/libmingw32.a(lib64_libmingw32_a-cinitexe.o)
                              C:/Users/lenovo/Downloads/x86_64-15.1.0-release-win32-seh-ucrt-rt_v12-rev0/mingw64/bin/../lib/gcc/x86_64-w64-mingw32/15.1.0/../../../../x86_64-w64-mingw32/lib/../lib/crt2.o (__xc_z)
C:/Users/lenovo/Downloads/x86_64-15.1.0-release-win32-seh-ucrt-rt_v12-rev0/mingw64/bin/../lib/gcc/x86_64-w64-mingw32/15.1.0/../../../../x86_64-w64-mingw32/lib/../lib/libmingw32.a(lib64_libmingw32_a-merr.o)
                              C:/Users/lenovo/Downloads/x86_64-15.1.0-release-win32-seh-ucrt-rt_v12-rev0/mingw64/bin/../lib/gcc/x86_64-w64-mingw32/15.1.0/../../../../x86_64-w64-mingw32/lib/../lib/crt2.o (_matherr)
C:/Users/lenovo/Downloads/x86_64-15.1.0-release-win32-seh-ucrt-rt_v12-rev0/mingw64/bin/../lib/gcc/x86_64-w64-mingw32/15.1.0/../../../../x86_64-w64-mingw32/lib/../lib/libmingw32.a(lib64_libmingw32_a-CRT_fp10.o)
                              C:/Users/lenovo/Downloads/x86_64-15.1.0-release-win32-seh-ucrt-rt_v12-rev0/mingw64/bin/../lib/gcc/x86_64-w64-mingw32/15.1.0/../../../../x86_64-w64-mingw32/lib/../lib/crt2.o (_fpreset)
C:/Users/lenovo/Downloads/x86_64-15.1.0-release-win32-seh-ucrt-rt_v12-rev0/mingw64/bin/../lib/gcc/x86_64-w64-mingw32/15.1.0/../../../../x86_64-w64-mingw32/lib/../lib/libmingw32.a(lib64_libmingw32_a-mingw_helpers.o)
                              C:/Users/lenovo/Downloads/x86_64-15.1.0-release-win32-seh-ucrt-rt_v12-rev0/mingw64/bin/../lib/gcc/x86_64-w64-mingw32/15.1.0/../../../../x86_64-w64-mingw32/lib/../lib/crt2.o (__mingw_app_type)
C:/Users/lenovo/Downloads/x86_64-15.1.0-release-win32-seh-ucrt-rt_v12-rev0/mingw64/bin/../lib/gcc/x86_64-w64-mingw32/15.1.0/../../../../x86_64-w64-mingw32/lib/../lib/libmingw32.a(lib64_libmingw32_a-pseudo-reloc.o)
                              C:/Users/lenovo/Downloads/x86_64-15.1.0-release-win32-seh-ucrt-rt_v12-rev0/mingw64/bin/../lib/gcc/x86_64-w64-mingw32/15.1.0/../../../../x86_64-w64-mingw32/lib/../lib/crt2.o (_pei386_runtime_relocator)
C:/Users/lenovo/Downloads/x86_64-15.1.0-release-win32-seh-ucrt-rt_v12-rev0/mingw64/bin/../lib/gcc/x86_64-w64-mingw32/15.1.0/../../../../x86_64-w64-mingw32/lib/../lib/libmingw32.a(lib64_libmingw32_a-usermatherr.o)
                              C:/Users/lenovo/Downloads/x86_64-15.1.0-release-win32-seh-ucrt-rt_v12-rev0/mingw64/bin/../lib/gcc/x86_64-w64-mingw32/15.1.0/../../../../x86_64-w64-mingw32/lib/../lib/crt2.o (__mingw_setusermatherr)
C:/Users/lenovo/Downloads/x86_64-15.1.0-release-win32-seh-ucrt-rt_v12-rev0/mingw64/bin/../lib/gcc/x86_64-w64-mingw32/15.1.0/../../../../x86_64-w64-mingw32/lib/../lib/libmingw32.a(lib64_libmingw32_a-xtxtmode.o)
                              C:/Users/lenovo/Downloads/x86_64-15.1.0-release-win32-seh-ucrt-rt_v12-rev0/mingw64/bin/../lib/gcc/x86_64-w64-mingw32/15.1.0/../../../../x86_64-w64-mingw32/lib/../lib/crt2.o (_fmode)
C:/Users/lenovo/Downloads/x86_64-15.1.0-release-win32-seh-ucrt-rt_v12-rev0/mingw64/bin/../lib/gcc/x86_64-w64-mingw32/15.1.0/../../../../x86_64-w64-mingw32/lib/../lib/libmingw32.a(lib64_libmingw32_a-crt_handler.o)
                              C:/Users/lenovo/Downloads/x86_64-15.1.0-release-win32-seh-ucrt-rt_v12-rev0/mingw64/bin/../lib/gcc/x86_64-w64-mingw32/15.1.0/../../../../x86_64-w64-mingw32/lib/../lib/crt2.o (_gnu_exception_handler)
C:/Users/lenovo/Downloads/x86_64-15.1.0-release-win32-seh-ucrt-rt_v12-rev0/mingw64/bin/../lib/gcc/x86_64-w64-mingw32/15.1.0/../../../../x86_64-w64-mingw32/lib/../lib/libmingw32.a(lib64_libmingw32_a-tlsthrd.o)
                              C:/Users/lenovo/Downloads/x86_64-15.1.0-release-win32-seh-ucrt-rt_v12-rev0/mingw64/bin/../lib/gcc/x86_64-w64-mingw32/15.1.0/../../../../x86_64-w64-mingw32/lib/../lib/libmingw32.a(lib64_libmingw32_a-tlssup.o) (__mingw_TLScallback)
C:/Users/lenovo/Downloads/x86_64-15.1.0-release-win32-seh-ucrt-rt_v12-rev0/mingw64/bin/../lib/gcc/x86_64-w64-mingw32/15.1.0/../../../../x86_64-w64-mingw32/lib/../lib/libmingw32.a(lib64_libmingw32_a-tlsmcrt.o)
                              C:/Users/lenovo/Downloads/x86_64-15.1.0-release-win32-seh-ucrt-rt_v12-rev0/mingw64/bin/../lib/gcc/x86_64-w64-mingw32/15.1.0/../../../../x86_64-w64-mingw32/lib/../lib/libmingw32.a(lib64_libmingw32_a-tlssup.o) (_CRT_MT)
C:/Users/lenovo/Downloads/x86_64-15.1.0-release-win32-seh-ucrt-rt_v12-rev0/mingw64/bin/../lib/gcc/x86_64-w64-mingw32/15.1.0/../../../../x86_64-w64-mingw32/lib/../lib/libmingw32.a(lib64_libmingw32_a-exit_wrappers.o)
                              C:/Users/lenovo/Downloads/x86_64-15.1.0-release-win32-seh-ucrt-rt_v12-rev0/mingw64/bin/../lib/gcc/x86_64-w64-mingw32/15.1.0/../../../../x86_64-w64-mingw32/lib/../lib/crt2.o (exit)
C:/Users/lenovo/Downloads/x86_64-15.1.0-release-win32-seh-ucrt-rt_v12-rev0/mingw64/bin/../lib/gcc/x86_64-w64-mingw32/15.1.0/../../../../x86_64-w64-mingw32/lib/../lib/libmingw32.a(lib64_libmingw32_a-pseudo-reloc-list.o)
                              C:/Users/lenovo/Downloads/x86_64-15.1.0-release-win32-seh-ucrt-rt_v12-rev0/mingw64/bin/../lib/gcc/x86_64-w64-mingw32/15.1.0/../../../../x86_64-w64-mingw32/lib/../lib/libmingw32.a(lib64_libmingw32_a-pseudo-reloc.o) (__RUNTIME_PSEUDO_RELOC_LIST__)
C:/Users/lenovo/Downloads/x86_64-15.1.0-release-win32-seh-ucrt-rt_v12-rev0/mingw64/bin/../lib/gcc/x86_64-w64-mingw32/15.1.0/../../../../x86_64-w64-mingw32/lib/../lib/libmingw32.a(lib64_libmingw32_a-pesect.o)
                              C:/Users/lenovo/Downloads/x86_64-15.1.0-release-win32-seh-ucrt-rt_v12-rev0/mingw64/bin/../lib/gcc/x86_64-w64-mingw32/15.1.0/../../../../x86_64-w64-mingw32/lib/../lib/libmingw32.a(lib64_libmingw32_a-pseudo-reloc.o) (__mingw_GetSectionForAddress)
C:/Users/lenovo/Downloads/x86_64-15.1.0-release-win32-seh-ucrt-rt_v12-rev0/mingw64/bin/../lib/gcc/x86_64-w64-mingw32/15.1.0/libgcc.a(_chkstk_ms.o)
                              C:/Users/lenovo/Downloads/x86_64-15.1.0-release-win32-seh-ucrt-rt_v12-rev0/mingw64/bin/../lib/gcc/x86_64-w64-mingw32/15.1.0/../../../../x86_64-w64-mingw32/lib/../lib/libmingw32.a(lib64_libmingw32_a-pseudo-reloc.o) (___chkstk_ms)
C:/Users/lenovo/Downloads/x86_64-15.1.0-release-win32-seh-ucrt-rt_v12-rev0/mingw64/bin/../lib/gcc/x86_64-w64-mingw32/15.1.0/libgcc.a(_ctors.o)
                              C:/Users/lenovo/Downloads/x86_64-15.1.0-release-win32-seh-ucrt-rt_v12-rev0/mingw64/bin/../lib/gcc/x86_64-w64-mingw32/15.1.0/../../../../x86_64-w64-mingw32/lib/../lib/libmingw32.a(lib64_libmingw32_a-gccmain.o) (__DTOR_LIST__)
C:/Users/lenovo/Downloads/x86_64-15.1.0-release-win32-seh-ucrt-rt_v12-rev0/mingw64/bin/../lib/gcc/x86_64-w64-mingw32/15.1.0/../../../../x86_64-w64-mingw32/lib/../lib/libmingwex.a(lib64_libmingwex_a-mingw_matherr.o)
                              C:/Users/lenovo/Downloads/x86_64-15.1.0-release-win32-seh-ucrt-rt_v12-rev0/mingw64/bin/../lib/gcc/x86_64-w64-mingw32/15.1.0/../../../../x86_64-w64-mingw32/lib/../lib/crt2.o (_MINGW_INSTALL_DEBUG_MATHERR)
C:/Users/lenovo/Downloads/x86_64-15.1.0-release-win32-seh-ucrt-rt_v12-rev0/mingw64/bin/../lib/gcc/x86_64-w64-mingw32/15.1.0/../../../../x86_64-w64-mingw32/lib/../lib/libmsvcrt.a(lib64_libucrt_extra_a-ucrt_vfprintf.o)
                              C:/Users/lenovo/Downloads/x86_64-15.1.0-release-win32-seh-ucrt-rt_v12-rev0/mingw64/bin/../lib/gcc/x86_64-w64-mingw32/15.1.0/../../../../x86_64-w64-mingw32/lib/../lib/libmingw32.a(lib64_libmingw32_a-pseudo-reloc.o) (vfprintf)
C:/Users/lenovo/Downloads/x86_64-15.1.0-release-win32-seh-ucrt-rt_v12-rev0/mingw64/bin/../lib/gcc/x86_64-w64-mingw32/15.1.0/../../../../x86_64-w64-mingw32/lib/../lib/libmsvcrt.a(lib64_libucrt_extra_a-ucrt_fprintf.o)
                              C:/Users/lenovo/Downloads/x86_64-15.1.0-release-win32-seh-ucrt-rt_v12-rev0/mingw64/bin/../lib/gcc/x86_64-w64-mingw32/15.1.0/../../../../x86_64-w64-mingw32/lib/../lib/libmingw32.a(lib64_libmingw32_a-merr.o) (fprintf)
C:/Users/lenovo/Downloads/x86_64-15.1.0-release-win32-seh-ucrt-rt_v12-rev0/mingw64/bin/../lib/gcc/x86_64-w64-mingw32/15.1.0/../../../../x86_64-w64-mingw32/lib/../lib/libmsvcrt.a(lib64_libucrt_extra_a-__initenv.o)
                              C:/Users/lenovo/Downloads/x86_64-15.1.0-release-win32-seh-ucrt-rt_v12-rev0/mingw64/bin/../lib/gcc/x86_64-w64-mingw32/15.1.0/../../../../x86_64-w64-mingw32/lib/../lib/crt2.o (__imp___initenv)
C:/Users/lenovo/Downloads/x86_64-15.1.0-release-win32-seh-ucrt-rt_v12-rev0/mingw64/bin/../lib/gcc/x86_64-w64-mingw32/15.1.0/../../../../x86_64-w64-mingw32/lib/../lib/libmsvcrt.a(lib64_libucrt_extra_a-ucrtbase_compat.o)
                              C:/Users/lenovo/Downloads/x86_64-15.1.0-release-win32-seh-ucrt-rt_v12-rev0/mingw64/bin/../lib/gcc/x86_64-w64-mingw32/15.1.0/../../../../x86_64-w64-mingw32/lib/../lib/crt2.o (__getmainargs)
C:/Users/lenovo/Downloads/x86_64-15.1.0-release-win32-seh-ucrt-rt_v12-rev0/mingw64/bin/../lib/gcc/x86_64-w64-mingw32/15.1.0/../../../../x86_64-w64-mingw32/lib/../lib/libmsvcrt.a(libapi-ms-win-crt-time-l1-1-0s00010.o)
                              C:/Users/lenovo/Downloads/x86_64-15.1.0-release-win32-seh-ucrt-rt_v12-rev0/mingw64/bin/../lib/gcc/x86_64-w64-mingw32/15.1.0/../../../../x86_64-w64-mingw32/lib/../lib/libmsvcrt.a(lib64_libucrt_extra_a-ucrtbase_compat.o) (__daylight)
C:/Users/lenovo/Downloads/x86_64-15.1.0-release-win32-seh-ucrt-rt_v12-rev0/mingw64/bin/../lib/gcc/x86_64-w64-mingw32/15.1.0/../../../../x86_64-w64-mingw32/lib/../lib/libmsvcrt.a(libapi-ms-win-crt-time-l1-1-0s00012.o)
                              C:/Users/lenovo/Downloads/x86_64-15.1.0-release-win32-seh-ucrt-rt_v12-rev0/mingw64/bin/../lib/gcc/x86_64-w64-mingw32/15.1.0/../../../../x86_64-w64-mingw32/lib/../lib/libmsvcrt.a(lib64_libucrt_extra_a-ucrtbase_compat.o) (__timezone)
C:/Users/lenovo/Downloads/x86_64-15.1.0-release-win32-seh-ucrt-rt_v12-rev0/mingw64/bin/../lib/gcc/x86_64-w64-mingw32/15.1.0/../../../../x86_64-w64-mingw32/lib/../lib/libmsvcrt.a(libapi-ms-win-crt-time-l1-1-0s00013.o)
                              C:/Users/lenovo/Downloads/x86_64-15.1.0-release-win32-seh-ucrt-rt_v12-rev0/mingw64/bin/../lib/gcc/x86_64-w64-mingw32/15.1.0/../../../../x86_64-w64-mingw32/lib/../lib/libmsvcrt.a(lib64_libucrt_extra_a-ucrtbase_compat.o) (__tzname)
C:/Users/lenovo/Downloads/x86_64-15.1.0-release-win32-seh-ucrt-rt_v12-rev0/mingw64/bin/../lib/gcc/x86_64-w64-mingw32/15.1.0/../../../../x86_64-w64-mingw32/lib/../lib/libmsvcrt.a(libapi-ms-win-crt-time-l1-1-0s00061.o)
                              C:/Users/lenovo/Downloads/x86_64-15.1.0-release-win32-seh-ucrt-rt_v12-rev0/mingw64/bin/../lib/gcc/x86_64-w64-mingw32/15.1.0/../../../../x86_64-w64-mingw32/lib/../lib/libmsvcrt.a(lib64_libucrt_extra_a-ucrtbase_compat.o) (__imp__tzset)
C:/Users/lenovo/Downloads/x86_64-15.1.0-release-win32-seh-ucrt-rt_v12-rev0/mingw64/bin/../lib/gcc/x86_64-w64-mingw32/15.1.0/../../../../x86_64-w64-mingw32/lib/../lib/libmsvcrt.a(libapi-ms-win-crt-time-l1-1-0h.o)
                              C:/Users/lenovo/Downloads/x86_64-15.1.0-release-win32-seh-ucrt-rt_v12-rev0/mingw64/bin/../lib/gcc/x86_64-w64-mingw32/15.1.0/../../../../x86_64-w64-mingw32/lib/../lib/libmsvcrt.a(libapi-ms-win-crt-time-l1-1-0s00010.o) (_head_lib64_libapi_ms_win_crt_time_l1_1_0_a)
C:/Users/lenovo/Downloads/x86_64-15.1.0-release-win32-seh-ucrt-rt_v12-rev0/mingw64/bin/../lib/gcc/x86_64-w64-mingw32/15.1.0/../../../../x86_64-w64-mingw32/lib/../lib/libmsvcrt.a(libapi-ms-win-crt-time-l1-1-0t.o)
                              C:/Users/lenovo/Downloads/x86_64-15.1.0-release-win32-seh-ucrt-rt_v12-rev0/mingw64/bin/../lib/gcc/x86_64-w64-mingw32/15.1.0/../../../../x86_64-w64-mingw32/lib/../lib/libmsvcrt.a(libapi-ms-win-crt-time-l1-1-0h.o) (__lib64_libapi_ms_win_crt_time_l1_1_0_a_iname)
C:/Users/lenovo/Downloads/x86_64-15.1.0-release-win32-seh-ucrt-rt_v12-rev0/mingw64/bin/../lib/gcc/x86_64-w64-mingw32/15.1.0/../../../../x86_64-w64-mingw32/lib/../lib/libmsvcrt.a(libapi-ms-win-crt-string-l1-1-0s00167.o)
                              C:/Users/lenovo/Downloads/x86_64-15.1.0-release-win32-seh-ucrt-rt_v12-rev0/mingw64/bin/../lib/gcc/x86_64-w64-mingw32/15.1.0/../../../../x86_64-w64-mingw32/lib/../lib/crt2.o (strlen)
C:/Users/lenovo/Downloads/x86_64-15.1.0-release-win32-seh-ucrt-rt_v12-rev0/mingw64/bin/../lib/gcc/x86_64-w64-mingw32/15.1.0/../../../../x86_64-w64-mingw32/lib/../lib/libmsvcrt.a(libapi-ms-win-crt-string-l1-1-0s00170.o)
                              C:/Users/lenovo/Downloads/x86_64-15.1.0-release-win32-seh-ucrt-rt_v12-rev0/mingw64/bin/../lib/gcc/x86_64-w64-mingw32/15.1.0/../../../../x86_64-w64-mingw32/lib/../lib/libmingw32.a(lib64_libmingw32_a-pesect.o) (strncmp)
C:/Users/lenovo/Downloads/x86_64-15.1.0-release-win32-seh-ucrt-rt_v12-rev0/mingw64/bin/../lib/gcc/x86_64-w64-mingw32/15.1.0/../../../../x86_64-w64-mingw32/lib/../lib/libmsvcrt.a(libapi-ms-win-crt-string-l1-1-0h.o)
                              C:/Users/lenovo/Downloads/x86_64-15.1.0-release-win32-seh-ucrt-rt_v12-rev0/mingw64/bin/../lib/gcc/x86_64-w64-mingw32/15.1.0/../../../../x86_64-w64-mingw32/lib/../lib/libmsvcrt.a(libapi-ms-win-crt-string-l1-1-0s00167.o) (_head_lib64_libapi_ms_win_crt_string_l1_1_0_a)
C:/Users/lenovo/Downloads/x86_64-15.1.0-release-win32-seh-ucrt-rt_v12-rev0/mingw64/bin/../lib/gcc/x86_64-w64-mingw32/15.1.0/../../../../x86_64-w64-mingw32/lib/../lib/libmsvcrt.a(libapi-ms-win-crt-string-l1-1-0t.o)
                              C:/Users/lenovo/Downloads/x86_64-15.1.0-release-win32-seh-ucrt-rt_v12-rev0/mingw64/bin/../lib/gcc/x86_64-w64-mingw32/15.1.0/../../../../x86_64-w64-mingw32/lib/../lib/libmsvcrt.a(libapi-ms-win-crt-string-l1-1-0h.o) (__lib64_libapi_ms_win_crt_string_l1_1_0_a_iname)
C:/Users/lenovo/Downloads/x86_64-15.1.0-release-win32-seh-ucrt-rt_v12-rev0/mingw64/bin/../lib/gcc/x86_64-w64-mingw32/15.1.0/../../../../x86_64-w64-mingw32/lib/../lib/libmsvcrt.a(libapi-ms-win-crt-stdio-l1-1-0s00000.o)
                              C:/Users/lenovo/Downloads/x86_64-15.1.0-release-win32-seh-ucrt-rt_v12-rev0/mingw64/bin/../lib/gcc/x86_64-w64-mingw32/15.1.0/../../../../x86_64-w64-mingw32/lib/../lib/libmingw32.a(lib64_libmingw32_a-merr.o) (__acrt_iob_func)
C:/Users/lenovo/Downloads/x86_64-15.1.0-release-win32-seh-ucrt-rt_v12-rev0/mingw64/bin/../lib/gcc/x86_64-w64-mingw32/15.1.0/../../../../x86_64-w64-mingw32/lib/../lib/libmsvcrt.a(libapi-ms-win-crt-stdio-l1-1-0s00001.o)
                              C:/Users/lenovo/Downloads/x86_64-15.1.0-release-win32-seh-ucrt-rt_v12-rev0/mingw64/bin/../lib/gcc/x86_64-w64-mingw32/15.1.0/../../../../x86_64-w64-mingw32/lib/../lib/crt2.o (__p__commode)
C:/Users/lenovo/Downloads/x86_64-15.1.0-release-win32-seh-ucrt-rt_v12-rev0/mingw64/bin/../lib/gcc/x86_64-w64-mingw32/15.1.0/../../../../x86_64-w64-mingw32/lib/../lib/libmsvcrt.a(libapi-ms-win-crt-stdio-l1-1-0s00002.o)
                              C:/Users/lenovo/Downloads/x86_64-15.1.0-release-win32-seh-ucrt-rt_v12-rev0/mingw64/bin/../lib/gcc/x86_64-w64-mingw32/15.1.0/../../../../x86_64-w64-mingw32/lib/../lib/crt2.o (__p__fmode)
C:/Users/lenovo/Downloads/x86_64-15.1.0-release-win32-seh-ucrt-rt_v12-rev0/mingw64/bin/../lib/gcc/x86_64-w64-mingw32/15.1.0/../../../../x86_64-w64-mingw32/lib/../lib/libmsvcrt.a(libapi-ms-win-crt-stdio-l1-1-0s00003.o)
                              C:/Users/lenovo/Downloads/x86_64-15.1.0-release-win32-seh-ucrt-rt_v12-rev0/mingw64/bin/../lib/gcc/x86_64-w64-mingw32/15.1.0/../../../../x86_64-w64-mingw32/lib/../lib/libmsvcrt.a(lib64_libucrt_extra_a-ucrt_vfprintf.o) (__stdio_common_vfprintf)
C:/Users/lenovo/Downloads/x86_64-15.1.0-release-win32-seh-ucrt-rt_v12-rev0/mingw64/bin/../lib/gcc/x86_64-w64-mingw32/15.1.0/../../../../x86_64-w64-mingw32/lib/../lib/libmsvcrt.a(libapi-ms-win-crt-stdio-l1-1-0s00007.o)
                              C:/Users/lenovo/Downloads/x86_64-15.1.0-release-win32-seh-ucrt-rt_v12-rev0/mingw64/bin/../lib/gcc/x86_64-w64-mingw32/15.1.0/../../../../x86_64-w64-mingw32/lib/../lib/libmsvcrt.a(lib64_libucrt_extra_a-ucrtbase_compat.o) (__stdio_common_vfwprintf)
C:/Users/lenovo/Downloads/x86_64-15.1.0-release-win32-seh-ucrt-rt_v12-rev0/mingw64/bin/../lib/gcc/x86_64-w64-mingw32/15.1.0/../../../../x86_64-w64-mingw32/lib/../lib/libmsvcrt.a(libapi-ms-win-crt-stdio-l1-1-0s00169.o)
                              C:/Users/lenovo/Downloads/x86_64-15.1.0-release-win32-seh-ucrt-rt_v12-rev0/mingw64/bin/../lib/gcc/x86_64-w64-mingw32/15.1.0/../../../../x86_64-w64-mingw32/lib/../lib/libmingw32.a(lib64_libmingw32_a-pseudo-reloc.o) (fwrite)
C:/Users/lenovo/Downloads/x86_64-15.1.0-release-win32-seh-ucrt-rt_v12-rev0/mingw64/bin/../lib/gcc/x86_64-w64-mingw32/15.1.0/../../../../x86_64-w64-mingw32/lib/../lib/libmsvcrt.a(libapi-ms-win-crt-stdio-l1-1-0h.o)
                              C:/Users/lenovo/Downloads/x86_64-15.1.0-release-win32-seh-ucrt-rt_v12-rev0/mingw64/bin/../lib/gcc/x86_64-w64-mingw32/15.1.0/../../../../x86_64-w64-mingw32/lib/../lib/libmsvcrt.a(libapi-ms-win-crt-stdio-l1-1-0s00000.o) (_head_lib64_libapi_ms_win_crt_stdio_l1_1_0_a)
C:/Users/lenovo/Downloads/x86_64-15.1.0-release-win32-seh-ucrt-rt_v12-rev0/mingw64/bin/../lib/gcc/x86_64-w64-mingw32/15.1.0/../../../../x86_64-w64-mingw32/lib/../lib/libmsvcrt.a(libapi-ms-win-crt-stdio-l1-1-0t.o)
                              C:/Users/lenovo/Downloads/x86_64-15.1.0-release-win32-seh-ucrt-rt_v12-rev0/mingw64/bin/../lib/gcc/x86_64-w64-mingw32/15.1.0/../../../../x86_64-w64-mingw32/lib/../lib/libmsvcrt.a(libapi-ms-win-crt-stdio-l1-1-0h.o) (__lib64_libapi_ms_win_crt_stdio_l1_1_0_a_iname)
C:/Users/lenovo/Downloads/x86_64-15.1.0-release-win32-seh-ucrt-rt_v12-rev0/mingw64/bin/../lib/gcc/x86_64-w64-mingw32/15.1.0/../../../../x86_64-w64-mingw32/lib/../lib/libmsvcrt.a(libapi-ms-win-crt-runtime-l1-1-0s00004.o)
                              C:/Users/lenovo/Downloads/x86_64-15.1.0-release-win32-seh-ucrt-rt_v12-rev0/mingw64/bin/../lib/gcc/x86_64-w64-mingw32/15.1.0/../../../../x86_64-w64-mingw32/lib/../lib/libmsvcrt.a(lib64_libucrt_extra_a-ucrtbase_compat.o) (__p___argc)
C:/Users/lenovo/Downloads/x86_64-15.1.0-release-win32-seh-ucrt-rt_v12-rev0/mingw64/bin/../lib/gcc/x86_64-w64-mingw32/15.1.0/../../../../x86_64-w64-mingw32/lib/../lib/libmsvcrt.a(libapi-ms-win-crt-runtime-l1-1-0s00005.o)
                              C:/Users/lenovo/Downloads/x86_64-15.1.0-release-win32-seh-ucrt-rt_v12-rev0/mingw64/bin/../lib/gcc/x86_64-w64-mingw32/15.1.0/../../../../x86_64-w64-mingw32/lib/../lib/libmsvcrt.a(lib64_libucrt_extra_a-ucrtbase_compat.o) (__p___argv)
C:/Users/lenovo/Downloads/x86_64-15.1.0-release-win32-seh-ucrt-rt_v12-rev0/mingw64/bin/../lib/gcc/x86_64-w64-mingw32/15.1.0/../../../../x86_64-w64-mingw32/lib/../lib/libmsvcrt.a(libapi-ms-win-crt-runtime-l1-1-0s00006.o)
                              C:/Users/lenovo/Downloads/x86_64-15.1.0-release-win32-seh-ucrt-rt_v12-rev0/mingw64/bin/../lib/gcc/x86_64-w64-mingw32/15.1.0/../../../../x86_64-w64-mingw32/lib/../lib/libmsvcrt.a(lib64_libucrt_extra_a-ucrtbase_compat.o) (__p___wargv)
C:/Users/lenovo/Downloads/x86_64-15.1.0-release-win32-seh-ucrt-rt_v12-rev0/mingw64/bin/../lib/gcc/x86_64-w64-mingw32/15.1.0/../../../../x86_64-w64-mingw32/lib/../lib/libmsvcrt.a(libapi-ms-win-crt-runtime-l1-1-0s00022.o)
                              C:/Users/lenovo/Downloads/x86_64-15.1.0-release-win32-seh-ucrt-rt_v12-rev0/mingw64/bin/../lib/gcc/x86_64-w64-mingw32/15.1.0/../../../../x86_64-w64-mingw32/lib/../lib/crt2.o (_cexit)
C:/Users/lenovo/Downloads/x86_64-15.1.0-release-win32-seh-ucrt-rt_v12-rev0/mingw64/bin/../lib/gcc/x86_64-w64-mingw32/15.1.0/../../../../x86_64-w64-mingw32/lib/../lib/libmsvcrt.a(libapi-ms-win-crt-runtime-l1-1-0s00024.o)
                              C:/Users/lenovo/Downloads/x86_64-15.1.0-release-win32-seh-ucrt-rt_v12-rev0/mingw64/bin/../lib/gcc/x86_64-w64-mingw32/15.1.0/../../../../x86_64-w64-mingw32/lib/../lib/libmsvcrt.a(lib64_libucrt_extra_a-ucrtbase_compat.o) (_configure_narrow_argv)
C:/Users/lenovo/Downloads/x86_64-15.1.0-release-win32-seh-ucrt-rt_v12-rev0/mingw64/bin/../lib/gcc/x86_64-w64-mingw32/15.1.0/../../../../x86_64-w64-mingw32/lib/../lib/libmsvcrt.a(libapi-ms-win-crt-runtime-l1-1-0s00025.o)
                              C:/Users/lenovo/Downloads/x86_64-15.1.0-release-win32-seh-ucrt-rt_v12-rev0/mingw64/bin/../lib/gcc/x86_64-w64-mingw32/15.1.0/../../../../x86_64-w64-mingw32/lib/../lib/libmsvcrt.a(lib64_libucrt_extra_a-ucrtbase_compat.o) (_configure_wide_argv)
C:/Users/lenovo/Downloads/x86_64-15.1.0-release-win32-seh-ucrt-rt_v12-rev0/mingw64/bin/../lib/gcc/x86_64-w64-mingw32/15.1.0/../../../../x86_64-w64-mingw32/lib/../lib/libmsvcrt.a(libapi-ms-win-crt-runtime-l1-1-0s00029.o)
                              C:/Users/lenovo/Downloads/x86_64-15.1.0-release-win32-seh-ucrt-rt_v12-rev0/mingw64/bin/../lib/gcc/x86_64-w64-mingw32/15.1.0/../../../../x86_64-w64-mingw32/lib/../lib/libmsvcrt.a(lib64_libucrt_extra_a-ucrtbase_compat.o) (_crt_at_quick_exit)
C:/Users/lenovo/Downloads/x86_64-15.1.0-release-win32-seh-ucrt-rt_v12-rev0/mingw64/bin/../lib/gcc/x86_64-w64-mingw32/15.1.0/../../../../x86_64-w64-mingw32/lib/../lib/libmsvcrt.a(libapi-ms-win-crt-runtime-l1-1-0s00030.o)
                              C:/Users/lenovo/Downloads/x86_64-15.1.0-release-win32-seh-ucrt-rt_v12-rev0/mingw64/bin/../lib/gcc/x86_64-w64-mingw32/15.1.0/../../../../x86_64-w64-mingw32/lib/../lib/libmsvcrt.a(lib64_libucrt_extra_a-ucrtbase_compat.o) (_crt_atexit)
C:/Users/lenovo/Downloads/x86_64-15.1.0-release-win32-seh-ucrt-rt_v12-rev0/mingw64/bin/../lib/gcc/x86_64-w64-mingw32/15.1.0/../../../../x86_64-w64-mingw32/lib/../lib/libmsvcrt.a(libapi-ms-win-crt-runtime-l1-1-0s00036.o)
                              C:/Users/lenovo/Downloads/x86_64-15.1.0-release-win32-seh-ucrt-rt_v12-rev0/mingw64/bin/../lib/gcc/x86_64-w64-mingw32/15.1.0/../../../../x86_64-w64-mingw32/lib/../lib/libmingw32.a(lib64_libmingw32_a-exit_wrappers.o) (__imp__exit)
C:/Users/lenovo/Downloads/x86_64-15.1.0-release-win32-seh-ucrt-rt_v12-rev0/mingw64/bin/../lib/gcc/x86_64-w64-mingw32/15.1.0/../../../../x86_64-w64-mingw32/lib/../lib/libmsvcrt.a(libapi-ms-win-crt-runtime-l1-1-0s00053.o)
                              C:/Users/lenovo/Downloads/x86_64-15.1.0-release-win32-seh-ucrt-rt_v12-rev0/mingw64/bin/../lib/gcc/x86_64-w64-mingw32/15.1.0/../../../../x86_64-w64-mingw32/lib/../lib/libmsvcrt.a(lib64_libucrt_extra_a-ucrtbase_compat.o) (_initialize_narrow_environment)
C:/Users/lenovo/Downloads/x86_64-15.1.0-release-win32-seh-ucrt-rt_v12-rev0/mingw64/bin/../lib/gcc/x86_64-w64-mingw32/15.1.0/../../../../x86_64-w64-mingw32/lib/../lib/libmsvcrt.a(libapi-ms-win-crt-runtime-l1-1-0s00055.o)
                              C:/Users/lenovo/Downloads/x86_64-15.1.0-release-win32-seh-ucrt-rt_v12-rev0/mingw64/bin/../lib/gcc/x86_64-w64-mingw32/15.1.0/../../../../x86_64-w64-mingw32/lib/../lib/libmsvcrt.a(lib64_libucrt_extra_a-ucrtbase_compat.o) (_initialize_wide_environment)
C:/Users/lenovo/Downloads/x86_64-15.1.0-release-win32-seh-ucrt-rt_v12-rev0/mingw64/bin/../lib/gcc/x86_64-w64-mingw32/15.1.0/../../../../x86_64-w64-mingw32/lib/../lib/libmsvcrt.a(libapi-ms-win-crt-runtime-l1-1-0s00056.o)
                              C:/Users/lenovo/Downloads/x86_64-15.1.0-release-win32-seh-ucrt-rt_v12-rev0/mingw64/bin/../lib/gcc/x86_64-w64-mingw32/15.1.0/../../../../x86_64-w64-mingw32/lib/../lib/crt2.o (_initterm)
C:/Users/lenovo/Downloads/x86_64-15.1.0-release-win32-seh-ucrt-rt_v12-rev0/mingw64/bin/../lib/gcc/x86_64-w64-mingw32/15.1.0/../../../../x86_64-w64-mingw32/lib/../lib/libmsvcrt.a(libapi-ms-win-crt-runtime-l1-1-0s00068.o)
                              C:/Users/lenovo/Downloads/x86_64-15.1.0-release-win32-seh-ucrt-rt_v12-rev0/mingw64/bin/../lib/gcc/x86_64-w64-mingw32/15.1.0/../../../../x86_64-w64-mingw32/lib/../lib/crt2.o (__set_app_type)
C:/Users/lenovo/Downloads/x86_64-15.1.0-release-win32-seh-ucrt-rt_v12-rev0/mingw64/bin/../lib/gcc/x86_64-w64-mingw32/15.1.0/../../../../x86_64-w64-mingw32/lib/../lib/libmsvcrt.a(libapi-ms-win-crt-runtime-l1-1-0s00074.o)
                              C:/Users/lenovo/Downloads/x86_64-15.1.0-release-win32-seh-ucrt-rt_v12-rev0/mingw64/bin/../lib/gcc/x86_64-w64-mingw32/15.1.0/../../../../x86_64-w64-mingw32/lib/../lib/crt2.o (_set_invalid_parameter_handler)
C:/Users/lenovo/Downloads/x86_64-15.1.0-release-win32-seh-ucrt-rt_v12-rev0/mingw64/bin/../lib/gcc/x86_64-w64-mingw32/15.1.0/../../../../x86_64-w64-mingw32/lib/../lib/libmsvcrt.a(libapi-ms-win-crt-runtime-l1-1-0s00087.o)
                              C:/Users/lenovo/Downloads/x86_64-15.1.0-release-win32-seh-ucrt-rt_v12-rev0/mingw64/bin/../lib/gcc/x86_64-w64-mingw32/15.1.0/../../../../x86_64-w64-mingw32/lib/../lib/libmingw32.a(lib64_libmingw32_a-pseudo-reloc.o) (abort)
C:/Users/lenovo/Downloads/x86_64-15.1.0-release-win32-seh-ucrt-rt_v12-rev0/mingw64/bin/../lib/gcc/x86_64-w64-mingw32/15.1.0/../../../../x86_64-w64-mingw32/lib/../lib/libmsvcrt.a(libapi-ms-win-crt-runtime-l1-1-0s00088.o)
                              C:/Users/lenovo/Downloads/x86_64-15.1.0-release-win32-seh-ucrt-rt_v12-rev0/mingw64/bin/../lib/gcc/x86_64-w64-mingw32/15.1.0/../../../../x86_64-w64-mingw32/lib/../lib/libmingw32.a(lib64_libmingw32_a-exit_wrappers.o) (__imp_exit)
C:/Users/lenovo/Downloads/x86_64-15.1.0-release-win32-seh-ucrt-rt_v12-rev0/mingw64/bin/../lib/gcc/x86_64-w64-mingw32/15.1.0/../../../../x86_64-w64-mingw32/lib/../lib/libmsvcrt.a(libapi-ms-win-crt-runtime-l1-1-0s00102.o)
                              C:/Users/lenovo/Downloads/x86_64-15.1.0-release-win32-seh-ucrt-rt_v12-rev0/mingw64/bin/../lib/gcc/x86_64-w64-mingw32/15.1.0/../../../../x86_64-w64-mingw32/lib/../lib/libmingw32.a(lib64_libmingw32_a-crt_handler.o) (signal)
C:/Users/lenovo/Downloads/x86_64-15.1.0-release-win32-seh-ucrt-rt_v12-rev0/mingw64/bin/../lib/gcc/x86_64-w64-mingw32/15.1.0/../../../../x86_64-w64-mingw32/lib/../lib/libmsvcrt.a(libapi-ms-win-crt-runtime-l1-1-0h.o)
                              C:/Users/lenovo/Downloads/x86_64-15.1.0-release-win32-seh-ucrt-rt_v12-rev0/mingw64/bin/../lib/gcc/x86_64-w64-mingw32/15.1.0/../../../../x86_64-w64-mingw32/lib/../lib/libmsvcrt.a(libapi-ms-win-crt-runtime-l1-1-0s00004.o) (_head_lib64_libapi_ms_win_crt_runtime_l1_1_0_a)
C:/Users/lenovo/Downloads/x86_64-15.1.0-release-win32-seh-ucrt-rt_v12-rev0/mingw64/bin/../lib/gcc/x86_64-w64-mingw32/15.1.0/../../../../x86_64-w64-mingw32/lib/../lib/libmsvcrt.a(libapi-ms-win-crt-runtime-l1-1-0t.o)
                              C:/Users/lenovo/Downloads/x86_64-15.1.0-release-win32-seh-ucrt-rt_v12-rev0/mingw64/bin/../lib/gcc/x86_64-w64-mingw32/15.1.0/../../../../x86_64-w64-mingw32/lib/../lib/libmsvcrt.a(libapi-ms-win-crt-runtime-l1-1-0h.o) (__lib64_libapi_ms_win_crt_runtime_l1_1_0_a_iname)
C:/Users/lenovo/Downloads/x86_64-15.1.0-release-win32-seh-ucrt-rt_v12-rev0/mingw64/bin/../lib/gcc/x86_64-w64-mingw32/15.1.0/../../../../x86_64-w64-mingw32/lib/../lib/libmsvcrt.a(libapi-ms-win-crt-private-l1-1-0s00015.o)
                              C:/Users/lenovo/Downloads/x86_64-15.1.0-release-win32-seh-ucrt-rt_v12-rev0/mingw64/bin/../lib/gcc/x86_64-w64-mingw32/15.1.0/../../../../x86_64-w64-mingw32/lib/../lib/crt2.o (__C_specific_handler)
C:/Users/lenovo/Downloads/x86_64-15.1.0-release-win32-seh-ucrt-rt_v12-rev0/mingw64/bin/../lib/gcc/x86_64-w64-mingw32/15.1.0/../../../../x86_64-w64-mingw32/lib/../lib/libmsvcrt.a(libapi-ms-win-crt-private-l1-1-0s01143.o)
                              C:/Users/lenovo/Downloads/x86_64-15.1.0-release-win32-seh-ucrt-rt_v12-rev0/mingw64/bin/../lib/gcc/x86_64-w64-mingw32/15.1.0/../../../../x86_64-w64-mingw32/lib/../lib/crt2.o (memcpy)
C:/Users/lenovo/Downloads/x86_64-15.1.0-release-win32-seh-ucrt-rt_v12-rev0/mingw64/bin/../lib/gcc/x86_64-w64-mingw32/15.1.0/../../../../x86_64-w64-mingw32/lib/../lib/libmsvcrt.a(libapi-ms-win-crt-private-l1-1-0h.o)
                              C:/Users/lenovo/Downloads/x86_64-15.1.0-release-win32-seh-ucrt-rt_v12-rev0/mingw64/bin/../lib/gcc/x86_64-w64-mingw32/15.1.0/../../../../x86_64-w64-mingw32/lib/../lib/libmsvcrt.a(libapi-ms-win-crt-private-l1-1-0s00015.o) (_head_lib64_libapi_ms_win_crt_private_l1_1_0_a)
C:/Users/lenovo/Downloads/x86_64-15.1.0-release-win32-seh-ucrt-rt_v12-rev0/mingw64/bin/../lib/gcc/x86_64-w64-mingw32/15.1.0/../../../../x86_64-w64-mingw32/lib/../lib/libmsvcrt.a(libapi-ms-win-crt-private-l1-1-0t.o)
                              C:/Users/lenovo/Downloads/x86_64-15.1.0-release-win32-seh-ucrt-rt_v12-rev0/mingw64/bin/../lib/gcc/x86_64-w64-mingw32/15.1.0/../../../../x86_64-w64-mingw32/lib/../lib/libmsvcrt.a(libapi-ms-win-crt-private-l1-1-0h.o) (__lib64_libapi_ms_win_crt_private_l1_1_0_a_iname)
C:/Users/lenovo/Downloads/x86_64-15.1.0-release-win32-seh-ucrt-rt_v12-rev0/mingw64/bin/../lib/gcc/x86_64-w64-mingw32/15.1.0/../../../../x86_64-w64-mingw32/lib/../lib/libmsvcrt.a(libapi-ms-win-crt-math-l1-1-0s00009.o)
                              C:/Users/lenovo/Downloads/x86_64-15.1.0-release-win32-seh-ucrt-rt_v12-rev0/mingw64/bin/../lib/gcc/x86_64-w64-mingw32/15.1.0/../../../../x86_64-w64-mingw32/lib/../lib/libmingw32.a(lib64_libmingw32_a-usermatherr.o) (__setusermatherr)
C:/Users/lenovo/Downloads/x86_64-15.1.0-release-win32-seh-ucrt-rt_v12-rev0/mingw64/bin/../lib/gcc/x86_64-w64-mingw32/15.1.0/../../../../x86_64-w64-mingw32/lib/../lib/libmsvcrt.a(libapi-ms-win-crt-math-l1-1-0h.o)
                              C:/Users/lenovo/Downloads/x86_64-15.1.0-release-win32-seh-ucrt-rt_v12-rev0/mingw64/bin/../lib/gcc/x86_64-w64-mingw32/15.1.0/../../../../x86_64-w64-mingw32/lib/../lib/libmsvcrt.a(libapi-ms-win-crt-math-l1-1-0s00009.o) (_head_lib64_libapi_ms_win_crt_math_l1_1_0_a)
C:/Users/lenovo/Downloads/x86_64-15.1.0-release-win32-seh-ucrt-rt_v12-rev0/mingw64/bin/../lib/gcc/x86_64-w64-mingw32/15.1.0/../../../../x86_64-w64-mingw32/lib/../lib/libmsvcrt.a(libapi-ms-win-crt-math-l1-1-0t.o)
                              C:/Users/lenovo/Downloads/x86_64-15.1.0-release-win32-seh-ucrt-rt_v12-rev0/mingw64/bin/../lib/gcc/x86_64-w64-mingw32/15.1.0/../../../../x86_64-w64-mingw32/lib/../lib/libmsvcrt.a(libapi-ms-win-crt-math-l1-1-0h.o) (__lib64_libapi_ms_win_crt_math_l1_1_0_a_iname)
C:/Users/lenovo/Downloads/x86_64-15.1.0-release-win32-seh-ucrt-rt_v12-rev0/mingw64/bin/../lib/gcc/x86_64-w64-mingw32/15.1.0/../../../../x86_64-w64-mingw32/lib/../lib/libmsvcrt.a(libapi-ms-win-crt-heap-l1-1-0s00023.o)
                              C:/Users/lenovo/Downloads/x86_64-15.1.0-release-win32-seh-ucrt-rt_v12-rev0/mingw64/bin/../lib/gcc/x86_64-w64-mingw32/15.1.0/../../../../x86_64-w64-mingw32/lib/../lib/libmsvcrt.a(lib64_libucrt_extra_a-ucrtbase_compat.o) (_set_new_mode)
C:/Users/lenovo/Downloads/x86_64-15.1.0-release-win32-seh-ucrt-rt_v12-rev0/mingw64/bin/../lib/gcc/x86_64-w64-mingw32/15.1.0/../../../../x86_64-w64-mingw32/lib/../lib/libmsvcrt.a(libapi-ms-win-crt-heap-l1-1-0s00024.o)
                              C:/Users/lenovo/Downloads/x86_64-15.1.0-release-win32-seh-ucrt-rt_v12-rev0/mingw64/bin/../lib/gcc/x86_64-w64-mingw32/15.1.0/../../../../x86_64-w64-mingw32/lib/../lib/libmingw32.a(lib64_libmingw32_a-tlsthrd.o) (calloc)
C:/Users/lenovo/Downloads/x86_64-15.1.0-release-win32-seh-ucrt-rt_v12-rev0/mingw64/bin/../lib/gcc/x86_64-w64-mingw32/15.1.0/../../../../x86_64-w64-mingw32/lib/../lib/libmsvcrt.a(libapi-ms-win-crt-heap-l1-1-0s00025.o)
                              C:/Users/lenovo/Downloads/x86_64-15.1.0-release-win32-seh-ucrt-rt_v12-rev0/mingw64/bin/../lib/gcc/x86_64-w64-mingw32/15.1.0/../../../../x86_64-w64-mingw32/lib/../lib/libmingw32.a(lib64_libmingw32_a-tlsthrd.o) (free)
C:/Users/lenovo/Downloads/x86_64-15.1.0-release-win32-seh-ucrt-rt_v12-rev0/mingw64/bin/../lib/gcc/x86_64-w64-mingw32/15.1.0/../../../../x86_64-w64-mingw32/lib/../lib/libmsvcrt.a(libapi-ms-win-crt-heap-l1-1-0s00026.o)
                              C:/Users/lenovo/Downloads/x86_64-15.1.0-release-win32-seh-ucrt-rt_v12-rev0/mingw64/bin/../lib/gcc/x86_64-w64-mingw32/15.1.0/../../../../x86_64-w64-mingw32/lib/../lib/crt2.o (malloc)
C:/Users/lenovo/Downloads/x86_64-15.1.0-release-win32-seh-ucrt-rt_v12-rev0/mingw64/bin/../lib/gcc/x86_64-w64-mingw32/15.1.0/../../../../x86_64-w64-mingw32/lib/../lib/libmsvcrt.a(libapi-ms-win-crt-heap-l1-1-0h.o)
                              C:/Users/lenovo/Downloads/x86_64-15.1.0-release-win32-seh-ucrt-rt_v12-rev0/mingw64/bin/../lib/gcc/x86_64-w64-mingw32/15.1.0/../../../../x86_64-w64-mingw32/lib/../lib/libmsvcrt.a(libapi-ms-win-crt-heap-l1-1-0s00023.o) (_head_lib64_libapi_ms_win_crt_heap_l1_1_0_a)
C:/Users/lenovo/Downloads/x86_64-15.1.0-release-win32-seh-ucrt-rt_v12-rev0/mingw64/bin/../lib/gcc/x86_64-w64-mingw32/15.1.0/../../../../x86_64-w64-mingw32/lib/../lib/libmsvcrt.a(libapi-ms-win-crt-heap-l1-1-0t.o)
                              C:/Users/lenovo/Downloads/x86_64-15.1.0-release-win32-seh-ucrt-rt_v12-rev0/mingw64/bin/../lib/gcc/x86_64-w64-mingw32/15.1.0/../../../../x86_64-w64-mingw32/lib/../lib/libmsvcrt.a(libapi-ms-win-crt-heap-l1-1-0h.o) (__lib64_libapi_ms_win_crt_heap_l1_1_0_a_iname)
C:/Users/lenovo/Downloads/x86_64-15.1.0-release-win32-seh-ucrt-rt_v12-rev0/mingw64/bin/../lib/gcc/x86_64-w64-mingw32/15.1.0/../../../../x86_64-w64-mingw32/lib/../lib/libmsvcrt.a(libapi-ms-win-crt-environment-l1-1-0s00000.o)
                              C:/Users/lenovo/Downloads/x86_64-15.1.0-release-win32-seh-ucrt-rt_v12-rev0/mingw64/bin/../lib/gcc/x86_64-w64-mingw32/15.1.0/../../../../x86_64-w64-mingw32/lib/../lib/libmsvcrt.a(lib64_libucrt_extra_a-ucrtbase_compat.o) (__p__environ)
C:/Users/lenovo/Downloads/x86_64-15.1.0-release-win32-seh-ucrt-rt_v12-rev0/mingw64/bin/../lib/gcc/x86_64-w64-mingw32/15.1.0/../../../../x86_64-w64-mingw32/lib/../lib/libmsvcrt.a(libapi-ms-win-crt-environment-l1-1-0s00001.o)
                              C:/Users/lenovo/Downloads/x86_64-15.1.0-release-win32-seh-ucrt-rt_v12-rev0/mingw64/bin/../lib/gcc/x86_64-w64-mingw32/15.1.0/../../../../x86_64-w64-mingw32/lib/../lib/libmsvcrt.a(lib64_libucrt_extra_a-ucrtbase_compat.o) (__p__wenviron)
C:/Users/lenovo/Downloads/x86_64-15.1.0-release-win32-seh-ucrt-rt_v12-rev0/mingw64/bin/../lib/gcc/x86_64-w64-mingw32/15.1.0/../../../../x86_64-w64-mingw32/lib/../lib/libmsvcrt.a(libapi-ms-win-crt-environment-l1-1-0h.o)
                              C:/Users/lenovo/Downloads/x86_64-15.1.0-release-win32-seh-ucrt-rt_v12-rev0/mingw64/bin/../lib/gcc/x86_64-w64-mingw32/15.1.0/../../../../x86_64-w64-mingw32/lib/../lib/libmsvcrt.a(libapi-ms-win-crt-environment-l1-1-0s00000.o) (_head_lib64_libapi_ms_win_crt_environment_l1_1_0_a)
C:/Users/lenovo/Downloads/x86_64-15.1.0-release-win32-seh-ucrt-rt_v12-rev0/mingw64/bin/../lib/gcc/x86_64-w64-mingw32/15.1.0/../../../../x86_64-w64-mingw32/lib/../lib/libmsvcrt.a(libapi-ms-win-crt-environment-l1-1-0t.o)
                              C:/Users/lenovo/Downloads/x86_64-15.1.0-release-win32-seh-ucrt-rt_v12-rev0/mingw64/bin/../lib/gcc/x86_64-w64-mingw32/15.1.0/../../../../x86_64-w64-mingw32/lib/../lib/libmsvcrt.a(libapi-ms-win-crt-environment-l1-1-0h.o) (__lib64_libapi_ms_win_crt_environment_l1_1_0_a_iname)
C:/Users/lenovo/Downloads/x86_64-15.1.0-release-win32-seh-ucrt-rt_v12-rev0/mingw64/bin/../lib/gcc/x86_64-w64-mingw32/15.1.0/../../../../x86_64-w64-mingw32/lib/../lib/libkernel32.a(libkernel32s01528.o)
                              C:/Users/lenovo/Downloads/x86_64-15.1.0-release-win32-seh-ucrt-rt_v12-rev0/mingw64/bin/../lib/gcc/x86_64-w64-mingw32/15.1.0/../../../../x86_64-w64-mingw32/lib/../lib/libmingw32.a(lib64_libmingw32_a-pseudo-reloc.o) (__imp_VirtualQuery)
C:/Users/lenovo/Downloads/x86_64-15.1.0-release-win32-seh-ucrt-rt_v12-rev0/mingw64/bin/../lib/gcc/x86_64-w64-mingw32/15.1.0/../../../../x86_64-w64-mingw32/lib/../lib/libkernel32.a(libkernel32s01526.o)
                              C:/Users/lenovo/Downloads/x86_64-15.1.0-release-win32-seh-ucrt-rt_v12-rev0/mingw64/bin/../lib/gcc/x86_64-w64-mingw32/15.1.0/../../../../x86_64-w64-mingw32/lib/../lib/libmingw32.a(lib64_libmingw32_a-pseudo-reloc.o) (__imp_VirtualProtect)
C:/Users/lenovo/Downloads/x86_64-15.1.0-release-win32-seh-ucrt-rt_v12-rev0/mingw64/bin/../lib/gcc/x86_64-w64-mingw32/15.1.0/../../../../x86_64-w64-mingw32/lib/../lib/libkernel32.a(libkernel32s01479.o)
                              C:/Users/lenovo/Downloads/x86_64-15.1.0-release-win32-seh-ucrt-rt_v12-rev0/mingw64/bin/../lib/gcc/x86_64-w64-mingw32/15.1.0/../../../../x86_64-w64-mingw32/lib/../lib/libmingw32.a(lib64_libmingw32_a-tlsthrd.o) (__imp_TlsGetValue)
C:/Users/lenovo/Downloads/x86_64-15.1.0-release-win32-seh-ucrt-rt_v12-rev0/mingw64/bin/../lib/gcc/x86_64-w64-mingw32/15.1.0/../../../../x86_64-w64-mingw32/lib/../lib/libkernel32.a(libkernel32s01443.o)
                              C:/Users/lenovo/Downloads/x86_64-15.1.0-release-win32-seh-ucrt-rt_v12-rev0/mingw64/bin/../lib/gcc/x86_64-w64-mingw32/15.1.0/../../../../x86_64-w64-mingw32/lib/../lib/crt2.o (__imp_Sleep)
C:/Users/lenovo/Downloads/x86_64-15.1.0-release-win32-seh-ucrt-rt_v12-rev0/mingw64/bin/../lib/gcc/x86_64-w64-mingw32/15.1.0/../../../../x86_64-w64-mingw32/lib/../lib/libkernel32.a(libkernel32s01427.o)
                              C:/Users/lenovo/Downloads/x86_64-15.1.0-release-win32-seh-ucrt-rt_v12-rev0/mingw64/bin/../lib/gcc/x86_64-w64-mingw32/15.1.0/../../../../x86_64-w64-mingw32/lib/../lib/crt2.o (__imp_SetUnhandledExceptionFilter)
C:/Users/lenovo/Downloads/x86_64-15.1.0-release-win32-seh-ucrt-rt_v12-rev0/mingw64/bin/../lib/gcc/x86_64-w64-mingw32/15.1.0/../../../../x86_64-w64-mingw32/lib/../lib/libkernel32.a(libkernel32s01007.o)
                              C:/Users/lenovo/Downloads/x86_64-15.1.0-release-win32-seh-ucrt-rt_v12-rev0/mingw64/bin/../lib/gcc/x86_64-w64-mingw32/15.1.0/../../../../x86_64-w64-mingw32/lib/../lib/libmingw32.a(lib64_libmingw32_a-tlsthrd.o) (__imp_LeaveCriticalSection)
C:/Users/lenovo/Downloads/x86_64-15.1.0-release-win32-seh-ucrt-rt_v12-rev0/mingw64/bin/../lib/gcc/x86_64-w64-mingw32/15.1.0/../../../../x86_64-w64-mingw32/lib/../lib/libkernel32.a(libkernel32s00913.o)
                              C:/Users/lenovo/Downloads/x86_64-15.1.0-release-win32-seh-ucrt-rt_v12-rev0/mingw64/bin/../lib/gcc/x86_64-w64-mingw32/15.1.0/../../../../x86_64-w64-mingw32/lib/../lib/libmingw32.a(lib64_libmingw32_a-tlsthrd.o) (__imp_InitializeCriticalSection)
C:/Users/lenovo/Downloads/x86_64-15.1.0-release-win32-seh-ucrt-rt_v12-rev0/mingw64/bin/../lib/gcc/x86_64-w64-mingw32/15.1.0/../../../../x86_64-w64-mingw32/lib/../lib/libkernel32.a(libkernel32s00643.o)
                              C:/Users/lenovo/Downloads/x86_64-15.1.0-release-win32-seh-ucrt-rt_v12-rev0/mingw64/bin/../lib/gcc/x86_64-w64-mingw32/15.1.0/../../../../x86_64-w64-mingw32/lib/../lib/libmingw32.a(lib64_libmingw32_a-pseudo-reloc.o) (__imp_GetLastError)
C:/Users/lenovo/Downloads/x86_64-15.1.0-release-win32-seh-ucrt-rt_v12-rev0/mingw64/bin/../lib/gcc/x86_64-w64-mingw32/15.1.0/../../../../x86_64-w64-mingw32/lib/../lib/libkernel32.a(libkernel32s00330.o)
                              C:/Users/lenovo/Downloads/x86_64-15.1.0-release-win32-seh-ucrt-rt_v12-rev0/mingw64/bin/../lib/gcc/x86_64-w64-mingw32/15.1.0/../../../../x86_64-w64-mingw32/lib/../lib/libmingw32.a(lib64_libmingw32_a-tlsthrd.o) (__imp_EnterCriticalSection)
C:/Users/lenovo/Downloads/x86_64-15.1.0-release-win32-seh-ucrt-rt_v12-rev0/mingw64/bin/../lib/gcc/x86_64-w64-mingw32/15.1.0/../../../../x86_64-w64-mingw32/lib/../lib/libkernel32.a(libkernel32s00292.o)
                              C:/Users/lenovo/Downloads/x86_64-15.1.0-release-win32-seh-ucrt-rt_v12-rev0/mingw64/bin/../lib/gcc/x86_64-w64-mingw32/15.1.0/../../../../x86_64-w64-mingw32/lib/../lib/libmingw32.a(lib64_libmingw32_a-tlsthrd.o) (__imp_DeleteCriticalSection)
C:/Users/lenovo/Downloads/x86_64-15.1.0-release-win32-seh-ucrt-rt_v12-rev0/mingw64/bin/../lib/gcc/x86_64-w64-mingw32/15.1.0/../../../../x86_64-w64-mingw32/lib/../lib/libkernel32.a(libkernel32h.o)
                              C:/Users/lenovo/Downloads/x86_64-15.1.0-release-win32-seh-ucrt-rt_v12-rev0/mingw64/bin/../lib/gcc/x86_64-w64-mingw32/15.1.0/../../../../x86_64-w64-mingw32/lib/../lib/libkernel32.a(libkernel32s01528.o) (_head_lib64_libkernel32_a)
C:/Users/lenovo/Downloads/x86_64-15.1.0-release-win32-seh-ucrt-rt_v12-rev0/mingw64/bin/../lib/gcc/x86_64-w64-mingw32/15.1.0/../../../../x86_64-w64-mingw32/lib/../lib/libkernel32.a(libkernel32t.o)
                              C:/Users/lenovo/Downloads/x86_64-15.1.0-release-win32-seh-ucrt-rt_v12-rev0/mingw64/bin/../lib/gcc/x86_64-w64-mingw32/15.1.0/../../../../x86_64-w64-mingw32/lib/../lib/libkernel32.a(libkernel32h.o) (__lib64_libkernel32_a_iname)

Discarded input sections

 .rdata$.refptr.__ImageBase
                0x0000000000000000       0x10 C:/Users/lenovo/Downloads/x86_64-15.1.0-release-win32-seh-ucrt-rt_v12-rev0/mingw64/bin/../lib/gcc/x86_64-w64-mingw32/15.1.0/../../../../x86_64-w64-mingw32/lib/../lib/libmingw32.a(lib64_libmingw32_a-pseudo-reloc.o)
 .rdata$.refptr.__ImageBase
                0x0000000000000000       0x10 C:/Users/lenovo/Downloads/x86_64-15.1.0-release-win32-seh-ucrt-rt_v12-rev0/mingw64/bin/../lib/gcc/x86_64-w64-mingw32/15.1.0/../../../../x86_64-w64-mingw32/lib/../lib/libmingw32.a(lib64_libmingw32_a-pesect.o)
 .rdata$.refptr.__imp__exit
                0x0000000000000000       0x10 C:/Users/lenovo/Downloads/x86_64-15.1.0-release-win32-seh-ucrt-rt_v12-rev0/mingw64/bin/../lib/gcc/x86_64-w64-mingw32/15.1.0/../../../../x86_64-w64-mingw32/lib/../lib/libmsvcrt.a(lib64_libucrt_extra_a-ucrtbase_compat.o)

Memory Configuration

Name             Origin             Length             Attributes
*default*        0x0000000000000000 0xffffffffffffffff

Linker script and memory map

                0x0000000140000000                __image_base__ = 0x140000000
                0x0000000000000000                __dll__ = 0x0
                0x0000000140000000                __ImageBase = 0x140000000
                0x0000000000001000                __section_alignment__ = 0x1000
                0x0000000000000200                __file_alignment__ = 0x200
                0x0000000000000004                __major_os_version__ = 0x4
                0x0000000000000000                __minor_os_version__ = 0x0
                0x0000000000000000                __major_image_version__ = 0x0
                0x0000000000000000                __minor_image_version__ = 0x0
                0x0000000000000005                __major_subsystem_version__ = 0x5
                0x0000000000000002                __minor_subsystem_version__ = 0x2
                0x0000000000000003                __subsystem__ = 0x3
                0x0000000000200000                __size_of_stack_reserve__ = 0x200000
                0x0000000000001000                __size_of_stack_commit__ = 0x1000
                0x0000000000100000                __size_of_heap_reserve__ = 0x100000
                0x0000000000001000                __size_of_heap_commit__ = 0x1000
                0x0000000000000000                __loader_flags__ = 0x0
                0x0000000000000160                __dll_characteristics__ = 0x160
LOAD C:/Users/lenovo/Downloads/x86_64-15.1.0-release-win32-seh-ucrt-rt_v12-rev0/mingw64/bin/../lib/gcc/x86_64-w64-mingw32/15.1.0/../../../../x86_64-w64-mingw32/lib/../lib/crt2.o
LOAD C:/Users/lenovo/Downloads/x86_64-15.1.0-release-win32-seh-ucrt-rt_v12-rev0/mingw64/bin/../lib/gcc/x86_64-w64-mingw32/15.1.0/crtbegin.o
LOAD build/o/Static.o
LOAD build/o/test.o
LOAD C:/Users/lenovo/Downloads/x86_64-15.1.0-release-win32-seh-ucrt-rt_v12-rev0/mingw64/bin/../lib/gcc/x86_64-w64-mingw32/15.1.0/libstdc++.dll.a
LOAD C:/Users/lenovo/Downloads/x86_64-15.1.0-release-win32-seh-ucrt-rt_v12-rev0/mingw64/bin/../lib/gcc/x86_64-w64-mingw32/15.1.0/../../../../x86_64-w64-mingw32/lib/../lib/libmingw32.a
LOAD C:/Users/lenovo/Downloads/x86_64-15.1.0-release-win32-seh-ucrt-rt_v12-rev0/mingw64/bin/../lib/gcc/x86_64-w64-mingw32/15.1.0/../../../../x86_64-w64-mingw32/lib/../lib/libgcc_s.a
LOAD C:/Users/lenovo/Downloads/x86_64-15.1.0-release-win32-seh-ucrt-rt_v12-rev0/mingw64/bin/../lib/gcc/x86_64-w64-mingw32/15.1.0/libgcc.a
LOAD C:/Users/lenovo/Downloads/x86_64-15.1.0-release-win32-seh-ucrt-rt_v12-rev0/mingw64/bin/../lib/gcc/x86_64-w64-mingw32/15.1.0/../../../../x86_64-w64-mingw32/lib/../lib/libmingwex.a
LOAD C:/Users/lenovo/Downloads/x86_64-15.1.0-release-win32-seh-ucrt-rt_v12-rev0/mingw64/bin/../lib/gcc/x86_64-w64-mingw32/15.1.0/../../../../x86_64-w64-mingw32/lib/../lib/libmsvcrt.a
LOAD C:/Users/lenovo/Downloads/x86_64-15.1.0-release-win32-seh-ucrt-rt_v12-rev0/mingw64/bin/../lib/gcc/x86_64-w64-mingw32/15.1.0/../../../../x86_64-w64-mingw32/lib/../lib/libkernel32.a
LOAD C:/Users/lenovo/Downloads/x86_64-15.1.0-release-win32-seh-ucrt-rt_v12-rev0/mingw64/bin/../lib/gcc/x86_64-w64-mingw32/15.1.0/../../../../x86_64-w64-mingw32/lib/../lib/libadvapi32.a
LOAD C:/Users/lenovo/Downloads/x86_64-15.1.0-release-win32-seh-ucrt-rt_v12-rev0/mingw64/bin/../lib/gcc/x86_64-w64-mingw32/15.1.0/../../../../x86_64-w64-mingw32/lib/../lib/libshell32.a
LOAD C:/Users/lenovo/Downloads/x86_64-15.1.0-release-win32-seh-ucrt-rt_v12-rev0/mingw64/bin/../lib/gcc/x86_64-w64-mingw32/15.1.0/../../../../x86_64-w64-mingw32/lib/../lib/libuser32.a
LOAD C:/Users/lenovo/Downloads/x86_64-15.1.0-release-win32-seh-ucrt-rt_v12-rev0/mingw64/bin/../lib/gcc/x86_64-w64-mingw32/15.1.0/../../../../x86_64-w64-mingw32/lib/../lib/libkernel32.a
LOAD C:/Users/lenovo/Downloads/x86_64-15.1.0-release-win32-seh-ucrt-rt_v12-rev0/mingw64/bin/../lib/gcc/x86_64-w64-mingw32/15.1.0/../../../../x86_64-w64-mingw32/lib/../lib/libiconv.a
LOAD C:/Users/lenovo/Downloads/x86_64-15.1.0-release-win32-seh-ucrt-rt_v12-rev0/mingw64/bin/../lib/gcc/x86_64-w64-mingw32/15.1.0/../../../../x86_64-w64-mingw32/lib/../lib/libmingw32.a
LOAD C:/Users/lenovo/Downloads/x86_64-15.1.0-release-win32-seh-ucrt-rt_v12-rev0/mingw64/bin/../lib/gcc/x86_64-w64-mingw32/15.1.0/../../../../x86_64-w64-mingw32/lib/../lib/libgcc_s.a
LOAD C:/Users/lenovo/Downloads/x86_64-15.1.0-release-win32-seh-ucrt-rt_v12-rev0/mingw64/bin/../lib/gcc/x86_64-w64-mingw32/15.1.0/libgcc.a
LOAD C:/Users/lenovo/Downloads/x86_64-15.1.0-release-win32-seh-ucrt-rt_v12-rev0/mingw64/bin/../lib/gcc/x86_64-w64-mingw32/15.1.0/../../../../x86_64-w64-mingw32/lib/../lib/libmingwex.a
LOAD C:/Users/lenovo/Downloads/x86_64-15.1.0-release-win32-seh-ucrt-rt_v12-rev0/mingw64/bin/../lib/gcc/x86_64-w64-mingw32/15.1.0/../../../../x86_64-w64-mingw32/lib/../lib/libmsvcrt.a
LOAD C:/Users/lenovo/Downloads/x86_64-15.1.0-release-win32-seh-ucrt-rt_v12-rev0/mingw64/bin/../lib/gcc/x86_64-w64-mingw32/15.1.0/../../../../x86_64-w64-mingw32/lib/../lib/libkernel32.a
LOAD C:/Users/lenovo/Downloads/x86_64-15.1.0-release-win32-seh-ucrt-rt_v12-rev0/mingw64/bin/../lib/gcc/x86_64-w64-mingw32/15.1.0/crtend.o
                0x0000000000000458                . = SIZEOF_HEADERS
                0x0000000000001000                . = ALIGN (__section_alignment__)

.text           0x0000000140001000     0x1a00
 *(SORT_NONE(.init))
 *(.text)
 .text          0x0000000140001000      0x430 C:/Users/lenovo/Downloads/x86_64-15.1.0-release-win32-seh-ucrt-rt_v12-rev0/mingw64/bin/../lib/gcc/x86_64-w64-mingw32/15.1.0/../../../../x86_64-w64-mingw32/lib/../lib/crt2.o
                0x00000001400013d0                WinMainCRTStartup
                0x00000001400013f0                mainCRTStartup
                0x0000000140001410                atexit
 .text          0x0000000140001430       0x20 C:/Users/lenovo/Downloads/x86_64-15.1.0-release-win32-seh-ucrt-rt_v12-rev0/mingw64/bin/../lib/gcc/x86_64-w64-mingw32/15.1.0/crtbegin.o
                0x0000000140001430                __gcc_register_frame
                0x0000000140001440                __gcc_deregister_frame
 .text          0x0000000140001450       0x10 build/o/Static.o
                0x0000000140001450                helper()
 .text          0x0000000140001460       0x40 build/o/test.o
                0x0000000140001460                main
 .text          0x00000001400014a0        0x8 C:/Users/lenovo/Downloads/x86_64-15.1.0-release-win32-seh-ucrt-rt_v12-rev0/mingw64/bin/../lib/gcc/x86_64-w64-mingw32/15.1.0/libstdc++.dll.a(libstdc___6_dll_d005600.o)
                0x00000001400014a0                std::basic_ostream<char, std::char_traits<char> >& std::endl<char, std::char_traits<char> >(std::basic_ostream<char, std::char_traits<char> >&)
 .text          0x00000001400014a8        0x0 C:/Users/lenovo/Downloads/x86_64-15.1.0-release-win32-seh-ucrt-rt_v12-rev0/mingw64/bin/../lib/gcc/x86_64-w64-mingw32/15.1.0/libstdc++.dll.a(libstdc___6_dll_d005599.o)
 .text          0x00000001400014a8        0x8 C:/Users/lenovo/Downloads/x86_64-15.1.0-release-win32-seh-ucrt-rt_v12-rev0/mingw64/bin/../lib/gcc/x86_64-w64-mingw32/15.1.0/libstdc++.dll.a(libstdc___6_dll_d001926.o)
                0x00000001400014a8                std::ostream::operator<<(int)
 .text          0x00000001400014b0        0x8 C:/Users/lenovo/Downloads/x86_64-15.1.0-release-win32-seh-ucrt-rt_v12-rev0/mingw64/bin/../lib/gcc/x86_64-w64-mingw32/15.1.0/libstdc++.dll.a(libstdc___6_dll_d001917.o)
                0x00000001400014b0                std::ostream::operator<<(std::ostream& (*)(std::ostream&))
 *fill*         0x00000001400014b8        0x8 
 .text          0x00000001400014c0       0xe0 C:/Users/lenovo/Downloads/x86_64-15.1.0-release-win32-seh-ucrt-rt_v12-rev0/mingw64/bin/../lib/gcc/x86_64-w64-mingw32/15.1.0/../../../../x86_64-w64-mingw32/lib/../lib/libmingw32.a(lib64_libmingw32_a-gccmain.o)
                0x00000001400014c0                __do_global_dtors
                0x0000000140001500                __do_global_ctors
                0x0000000140001580                __main
 .text          0x00000001400015a0        0x0 C:/Users/lenovo/Downloads/x86_64-15.1.0-release-win32-seh-ucrt-rt_v12-rev0/mingw64/bin/../lib/gcc/x86_64-w64-mingw32/15.1.0/../../../../x86_64-w64-mingw32/lib/../lib/libmingw32.a(lib64_libmingw32_a-natstart.o)
 .text          0x00000001400015a0        0x0 C:/Users/lenovo/Downloads/x86_64-15.1.0-release-win32-seh-ucrt-rt_v12-rev0/mingw64/bin/../lib/gcc/x86_64-w64-mingw32/15.1.0/../../../../x86_64-w64-mingw32/lib/../lib/libmingw32.a(lib64_libmingw32_a-wildcard.o)
 .text          0x00000001400015a0       0x10 C:/Users/lenovo/Downloads/x86_64-15.1.0-release-win32-seh-ucrt-rt_v12-rev0/mingw64/bin/../lib/gcc/x86_64-w64-mingw32/15.1.0/../../../../x86_64-w64-mingw32/lib/../lib/libmingw32.a(lib64_libmingw32_a-dllargv.o)
                0x00000001400015a0                _setargv
 .text          0x00000001400015b0        0x0 C:/Users/lenovo/Downloads/x86_64-15.1.0-release-win32-seh-ucrt-rt_v12-rev0/mingw64/bin/../lib/gcc/x86_64-w64-mingw32/15.1.0/../../../../x86_64-w64-mingw32/lib/../lib/libmingw32.a(lib64_libmingw32_a-_newmode.o)
 .text          0x00000001400015b0       0xd0 C:/Users/lenovo/Downloads/x86_64-15.1.0-release-win32-seh-ucrt-rt_v12-rev0/mingw64/bin/../lib/gcc/x86_64-w64-mingw32/15.1.0/../../../../x86_64-w64-mingw32/lib/../lib/libmingw32.a(lib64_libmingw32_a-tlssup.o)
                0x00000001400015e0                __dyn_tls_init
                0x0000000140001670                __tlregdtor
 .text          0x0000000140001680        0x0 C:/Users/lenovo/Downloads/x86_64-15.1.0-release-win32-seh-ucrt-rt_v12-rev0/mingw64/bin/../lib/gcc/x86_64-w64-mingw32/15.1.0/../../../../x86_64-w64-mingw32/lib/../lib/libmingw32.a(lib64_libmingw32_a-xncommod.o)
 .text          0x0000000140001680        0x0 C:/Users/lenovo/Downloads/x86_64-15.1.0-release-win32-seh-ucrt-rt_v12-rev0/mingw64/bin/../lib/gcc/x86_64-w64-mingw32/15.1.0/../../../../x86_64-w64-mingw32/lib/../lib/libmingw32.a(lib64_libmingw32_a-cinitexe.o)
 .text          0x0000000140001680      0x100 C:/Users/lenovo/Downloads/x86_64-15.1.0-release-win32-seh-ucrt-rt_v12-rev0/mingw64/bin/../lib/gcc/x86_64-w64-mingw32/15.1.0/../../../../x86_64-w64-mingw32/lib/../lib/libmingw32.a(lib64_libmingw32_a-merr.o)
                0x0000000140001680                _matherr
 .text          0x0000000140001780       0x10 C:/Users/lenovo/Downloads/x86_64-15.1.0-release-win32-seh-ucrt-rt_v12-rev0/mingw64/bin/../lib/gcc/x86_64-w64-mingw32/15.1.0/../../../../x86_64-w64-mingw32/lib/../lib/libmingw32.a(lib64_libmingw32_a-CRT_fp10.o)
                0x0000000140001780                fpreset
                0x0000000140001780                _fpreset
 .text          0x0000000140001790        0x0 C:/Users/lenovo/Downloads/x86_64-15.1.0-release-win32-seh-ucrt-rt_v12-rev0/mingw64/bin/../lib/gcc/x86_64-w64-mingw32/15.1.0/../../../../x86_64-w64-mingw32/lib/../lib/libmingw32.a(lib64_libmingw32_a-mingw_helpers.o)
 .text          0x0000000140001790      0x550 C:/Users/lenovo/Downloads/x86_64-15.1.0-release-win32-seh-ucrt-rt_v12-rev0/mingw64/bin/../lib/gcc/x86_64-w64-mingw32/15.1.0/../../../../x86_64-w64-mingw32/lib/../lib/libmingw32.a(lib64_libmingw32_a-pseudo-reloc.o)
                0x0000000140001970                _pei386_runtime_relocator
 .text          0x0000000140001ce0       0x50 C:/Users/lenovo/Downloads/x86_64-15.1.0-release-win32-seh-ucrt-rt_v12-rev0/mingw64/bin/../lib/gcc/x86_64-w64-mingw32/15.1.0/../../../../x86_64-w64-mingw32/lib/../lib/libmingw32.a(lib64_libmingw32_a-usermatherr.o)
                0x0000000140001ce0                __mingw_raise_matherr
                0x0000000140001d20                __mingw_setusermatherr
 .text          0x0000000140001d30        0x0 C:/Users/lenovo/Downloads/x86_64-15.1.0-release-win32-seh-ucrt-rt_v12-rev0/mingw64/bin/../lib/gcc/x86_64-w64-mingw32/15.1.0/../../../../x86_64-w64-mingw32/lib/../lib/libmingw32.a(lib64_libmingw32_a-xtxtmode.o)
 .text          0x0000000140001d30      0x1c0 C:/Users/lenovo/Downloads/x86_64-15.1.0-release-win32-seh-ucrt-rt_v12-rev0/mingw64/bin/../lib/gcc/x86_64-w64-mingw32/15.1.0/../../../../x86_64-w64-mingw32/lib/../lib/libmingw32.a(lib64_libmingw32_a-crt_handler.o)
                0x0000000140001d30                _gnu_exception_handler
 *fill*         0x0000000140001ef0       0x10 
 .text          0x0000000140001f00      0x280 C:/Users/lenovo/Downloads/x86_64-15.1.0-release-win32-seh-ucrt-rt_v12-rev0/mingw64/bin/../lib/gcc/x86_64-w64-mingw32/15.1.0/../../../../x86_64-w64-mingw32/lib/../lib/libmingw32.a(lib64_libmingw32_a-tlsthrd.o)
                0x0000000140001f70                ___w64_mingwthr_add_key_dtor
                0x0000000140001fe0                ___w64_mingwthr_remove_key_dtor
                0x0000000140002070                __mingw_TLScallback
 .text          0x0000000140002180        0x0 C:/Users/lenovo/Downloads/x86_64-15.1.0-release-win32-seh-ucrt-rt_v12-rev0/mingw64/bin/../lib/gcc/x86_64-w64-mingw32/15.1.0/../../../../x86_64-w64-mingw32/lib/../lib/libmingw32.a(lib64_libmingw32_a-tlsmcrt.o)
 .text          0x0000000140002180       0x20 C:/Users/lenovo/Downloads/x86_64-15.1.0-release-win32-seh-ucrt-rt_v12-rev0/mingw64/bin/../lib/gcc/x86_64-w64-mingw32/15.1.0/../../../../x86_64-w64-mingw32/lib/../lib/libmingw32.a(lib64_libmingw32_a-exit_wrappers.o)
                0x0000000140002180                exit
                0x0000000140002190                _exit
 .text          0x00000001400021a0        0x0 C:/Users/lenovo/Downloads/x86_64-15.1.0-release-win32-seh-ucrt-rt_v12-rev0/mingw64/bin/../lib/gcc/x86_64-w64-mingw32/15.1.0/../../../../x86_64-w64-mingw32/lib/../lib/libmingw32.a(lib64_libmingw32_a-pseudo-reloc-list.o)
 .text          0x00000001400021a0      0x400 C:/Users/lenovo/Downloads/x86_64-15.1.0-release-win32-seh-ucrt-rt_v12-rev0/mingw64/bin/../lib/gcc/x86_64-w64-mingw32/15.1.0/../../../../x86_64-w64-mingw32/lib/../lib/libmingw32.a(lib64_libmingw32_a-pesect.o)
                0x00000001400021a0                _ValidateImageBase
                0x00000001400021d0                _FindPESection
                0x0000000140002220                _FindPESectionByName
                0x00000001400022c0                __mingw_GetSectionForAddress
                0x0000000140002340                __mingw_GetSectionCount
                0x0000000140002380                _FindPESectionExec
                0x0000000140002400                _GetPEImageBase
                0x0000000140002440                _IsNonwritableInCurrentImage
                0x00000001400024d0                __mingw_enum_import_library_names
 .text          0x00000001400025a0       0x40 C:/Users/lenovo/Downloads/x86_64-15.1.0-release-win32-seh-ucrt-rt_v12-rev0/mingw64/bin/../lib/gcc/x86_64-w64-mingw32/15.1.0/libgcc.a(_chkstk_ms.o)
                0x00000001400025a0                ___chkstk_ms
 .text          0x00000001400025e0        0x0 C:/Users/lenovo/Downloads/x86_64-15.1.0-release-win32-seh-ucrt-rt_v12-rev0/mingw64/bin/../lib/gcc/x86_64-w64-mingw32/15.1.0/libgcc.a(_ctors.o)
 .text          0x00000001400025e0        0x0 C:/Users/lenovo/Downloads/x86_64-15.1.0-release-win32-seh-ucrt-rt_v12-rev0/mingw64/bin/../lib/gcc/x86_64-w64-mingw32/15.1.0/../../../../x86_64-w64-mingw32/lib/../lib/libmingwex.a(lib64_libmingwex_a-mingw_matherr.o)
 .text          0x00000001400025e0       0x20 C:/Users/lenovo/Downloads/x86_64-15.1.0-release-win32-seh-ucrt-rt_v12-rev0/mingw64/bin/../lib/gcc/x86_64-w64-mingw32/15.1.0/../../../../x86_64-w64-mingw32/lib/../lib/libmsvcrt.a(lib64_libucrt_extra_a-ucrt_vfprintf.o)
                0x00000001400025e0                vfprintf
 .text          0x0000000140002600       0x40 C:/Users/lenovo/Downloads/x86_64-15.1.0-release-win32-seh-ucrt-rt_v12-rev0/mingw64/bin/../lib/gcc/x86_64-w64-mingw32/15.1.0/../../../../x86_64-w64-mingw32/lib/../lib/libmsvcrt.a(lib64_libucrt_extra_a-ucrt_fprintf.o)
                0x0000000140002600                fprintf
 .text          0x0000000140002640        0x0 C:/Users/lenovo/Downloads/x86_64-15.1.0-release-win32-seh-ucrt-rt_v12-rev0/mingw64/bin/../lib/gcc/x86_64-w64-mingw32/15.1.0/../../../../x86_64-w64-mingw32/lib/../lib/libmsvcrt.a(lib64_libucrt_extra_a-__initenv.o)
 .text          0x0000000140002640      0x230 C:/Users/lenovo/Downloads/x86_64-15.1.0-release-win32-seh-ucrt-rt_v12-rev0/mingw64/bin/../lib/gcc/x86_64-w64-mingw32/15.1.0/../../../../x86_64-w64-mingw32/lib/../lib/libmsvcrt.a(lib64_libucrt_extra_a-ucrtbase_compat.o)
                0x0000000140002640                _get_output_format
                0x0000000140002650                __getmainargs
                0x00000001400026c0                __wgetmainargs
                0x0000000140002730                _onexit
                0x0000000140002750                at_quick_exit
                0x0000000140002770                _amsg_exit
                0x00000001400027b0                __ms_fwprintf
                0x00000001400027f0                tzset
                0x0000000140002830                _tzset
 .text          0x0000000140002870        0x8 C:/Users/lenovo/Downloads/x86_64-15.1.0-release-win32-seh-ucrt-rt_v12-rev0/mingw64/bin/../lib/gcc/x86_64-w64-mingw32/15.1.0/../../../../x86_64-w64-mingw32/lib/../lib/libmsvcrt.a(libapi-ms-win-crt-time-l1-1-0s00010.o)
                0x0000000140002870                __daylight
 .text          0x0000000140002878        0x8 C:/Users/lenovo/Downloads/x86_64-15.1.0-release-win32-seh-ucrt-rt_v12-rev0/mingw64/bin/../lib/gcc/x86_64-w64-mingw32/15.1.0/../../../../x86_64-w64-mingw32/lib/../lib/libmsvcrt.a(libapi-ms-win-crt-time-l1-1-0s00012.o)
                0x0000000140002878                __timezone
 .text          0x0000000140002880        0x8 C:/Users/lenovo/Downloads/x86_64-15.1.0-release-win32-seh-ucrt-rt_v12-rev0/mingw64/bin/../lib/gcc/x86_64-w64-mingw32/15.1.0/../../../../x86_64-w64-mingw32/lib/../lib/libmsvcrt.a(libapi-ms-win-crt-time-l1-1-0s00013.o)
                0x0000000140002880                __tzname
 .text          0x0000000140002888        0x0 C:/Users/lenovo/Downloads/x86_64-15.1.0-release-win32-seh-ucrt-rt_v12-rev0/mingw64/bin/../lib/gcc/x86_64-w64-mingw32/15.1.0/../../../../x86_64-w64-mingw32/lib/../lib/libmsvcrt.a(libapi-ms-win-crt-time-l1-1-0s00061.o)
 *fill*         0x0000000140002888        0x8 
 .text          0x0000000140002890        0x0 C:/Users/lenovo/Downloads/x86_64-15.1.0-release-win32-seh-ucrt-rt_v12-rev0/mingw64/bin/../lib/gcc/x86_64-w64-mingw32/15.1.0/../../../../x86_64-w64-mingw32/lib/../lib/libmsvcrt.a(libapi-ms-win-crt-time-l1-1-0h.o)
 .text          0x0000000140002890        0x0 C:/Users/lenovo/Downloads/x86_64-15.1.0-release-win32-seh-ucrt-rt_v12-rev0/mingw64/bin/../lib/gcc/x86_64-w64-mingw32/15.1.0/../../../../x86_64-w64-mingw32/lib/../lib/libmsvcrt.a(libapi-ms-win-crt-time-l1-1-0t.o)
 .text          0x0000000140002890        0x8 C:/Users/lenovo/Downloads/x86_64-15.1.0-release-win32-seh-ucrt-rt_v12-rev0/mingw64/bin/../lib/gcc/x86_64-w64-mingw32/15.1.0/../../../../x86_64-w64-mingw32/lib/../lib/libmsvcrt.a(libapi-ms-win-crt-string-l1-1-0s00167.o)
                0x0000000140002890                strlen
 .text          0x0000000140002898        0x8 C:/Users/lenovo/Downloads/x86_64-15.1.0-release-win32-seh-ucrt-rt_v12-rev0/mingw64/bin/../lib/gcc/x86_64-w64-mingw32/15.1.0/../../../../x86_64-w64-mingw32/lib/../lib/libmsvcrt.a(libapi-ms-win-crt-string-l1-1-0s00170.o)
                0x0000000140002898                strncmp
 .text          0x00000001400028a0        0x0 C:/Users/lenovo/Downloads/x86_64-15.1.0-release-win32-seh-ucrt-rt_v12-rev0/mingw64/bin/../lib/gcc/x86_64-w64-mingw32/15.1.0/../../../../x86_64-w64-mingw32/lib/../lib/libmsvcrt.a(libapi-ms-win-crt-string-l1-1-0h.o)
 .text          0x00000001400028a0        0x0 C:/Users/lenovo/Downloads/x86_64-15.1.0-release-win32-seh-ucrt-rt_v12-rev0/mingw64/bin/../lib/gcc/x86_64-w64-mingw32/15.1.0/../../../../x86_64-w64-mingw32/lib/../lib/libmsvcrt.a(libapi-ms-win-crt-string-l1-1-0t.o)
 .text          0x00000001400028a0        0x8 C:/Users/lenovo/Downloads/x86_64-15.1.0-release-win32-seh-ucrt-rt_v12-rev0/mingw64/bin/../lib/gcc/x86_64-w64-mingw32/15.1.0/../../../../x86_64-w64-mingw32/lib/../lib/libmsvcrt.a(libapi-ms-win-crt-stdio-l1-1-0s00000.o)
                0x00000001400028a0                __acrt_iob_func
 .text          0x00000001400028a8        0x8 C:/Users/lenovo/Downloads/x86_64-15.1.0-release-win32-seh-ucrt-rt_v12-rev0/mingw64/bin/../lib/gcc/x86_64-w64-mingw32/15.1.0/../../../../x86_64-w64-mingw32/lib/../lib/libmsvcrt.a(libapi-ms-win-crt-stdio-l1-1-0s00001.o)
                0x00000001400028a8                __p__commode
 .text          0x00000001400028b0        0x8 C:/Users/lenovo/Downloads/x86_64-15.1.0-release-win32-seh-ucrt-rt_v12-rev0/mingw64/bin/../lib/gcc/x86_64-w64-mingw32/15.1.0/../../../../x86_64-w64-mingw32/lib/../lib/libmsvcrt.a(libapi-ms-win-crt-stdio-l1-1-0s00002.o)
                0x00000001400028b0                __p__fmode
 .text          0x00000001400028b8        0x8 C:/Users/lenovo/Downloads/x86_64-15.1.0-release-win32-seh-ucrt-rt_v12-rev0/mingw64/bin/../lib/gcc/x86_64-w64-mingw32/15.1.0/../../../../x86_64-w64-mingw32/lib/../lib/libmsvcrt.a(libapi-ms-win-crt-stdio-l1-1-0s00003.o)
                0x00000001400028b8                __stdio_common_vfprintf
 .text          0x00000001400028c0        0x8 C:/Users/lenovo/Downloads/x86_64-15.1.0-release-win32-seh-ucrt-rt_v12-rev0/mingw64/bin/../lib/gcc/x86_64-w64-mingw32/15.1.0/../../../../x86_64-w64-mingw32/lib/../lib/libmsvcrt.a(libapi-ms-win-crt-stdio-l1-1-0s00007.o)
                0x00000001400028c0                __stdio_common_vfwprintf
 .text          0x00000001400028c8        0x8 C:/Users/lenovo/Downloads/x86_64-15.1.0-release-win32-seh-ucrt-rt_v12-rev0/mingw64/bin/../lib/gcc/x86_64-w64-mingw32/15.1.0/../../../../x86_64-w64-mingw32/lib/../lib/libmsvcrt.a(libapi-ms-win-crt-stdio-l1-1-0s00169.o)
                0x00000001400028c8                fwrite
 .text          0x00000001400028d0        0x0 C:/Users/lenovo/Downloads/x86_64-15.1.0-release-win32-seh-ucrt-rt_v12-rev0/mingw64/bin/../lib/gcc/x86_64-w64-mingw32/15.1.0/../../../../x86_64-w64-mingw32/lib/../lib/libmsvcrt.a(libapi-ms-win-crt-stdio-l1-1-0h.o)
 .text          0x00000001400028d0        0x0 C:/Users/lenovo/Downloads/x86_64-15.1.0-release-win32-seh-ucrt-rt_v12-rev0/mingw64/bin/../lib/gcc/x86_64-w64-mingw32/15.1.0/../../../../x86_64-w64-mingw32/lib/../lib/libmsvcrt.a(libapi-ms-win-crt-stdio-l1-1-0t.o)
 .text          0x00000001400028d0        0x8 C:/Users/lenovo/Downloads/x86_64-15.1.0-release-win32-seh-ucrt-rt_v12-rev0/mingw64/bin/../lib/gcc/x86_64-w64-mingw32/15.1.0/../../../../x86_64-w64-mingw32/lib/../lib/libmsvcrt.a(libapi-ms-win-crt-runtime-l1-1-0s00004.o)
                0x00000001400028d0                __p___argc
 .text          0x00000001400028d8        0x8 C:/Users/lenovo/Downloads/x86_64-15.1.0-release-win32-seh-ucrt-rt_v12-rev0/mingw64/bin/../lib/gcc/x86_64-w64-mingw32/15.1.0/../../../../x86_64-w64-mingw32/lib/../lib/libmsvcrt.a(libapi-ms-win-crt-runtime-l1-1-0s00005.o)
                0x00000001400028d8                __p___argv
 .text          0x00000001400028e0        0x8 C:/Users/lenovo/Downloads/x86_64-15.1.0-release-win32-seh-ucrt-rt_v12-rev0/mingw64/bin/../lib/gcc/x86_64-w64-mingw32/15.1.0/../../../../x86_64-w64-mingw32/lib/../lib/libmsvcrt.a(libapi-ms-win-crt-runtime-l1-1-0s00006.o)
                0x00000001400028e0                __p___wargv
 .text          0x00000001400028e8        0x8 C:/Users/lenovo/Downloads/x86_64-15.1.0-release-win32-seh-ucrt-rt_v12-rev0/mingw64/bin/../lib/gcc/x86_64-w64-mingw32/15.1.0/../../../../x86_64-w64-mingw32/lib/../lib/libmsvcrt.a(libapi-ms-win-crt-runtime-l1-1-0s00022.o)
                0x00000001400028e8                _cexit
 .text          0x00000001400028f0        0x8 C:/Users/lenovo/Downloads/x86_64-15.1.0-release-win32-seh-ucrt-rt_v12-rev0/mingw64/bin/../lib/gcc/x86_64-w64-mingw32/15.1.0/../../../../x86_64-w64-mingw32/lib/../lib/libmsvcrt.a(libapi-ms-win-crt-runtime-l1-1-0s00024.o)
                0x00000001400028f0                _configure_narrow_argv
 .text          0x00000001400028f8        0x8 C:/Users/lenovo/Downloads/x86_64-15.1.0-release-win32-seh-ucrt-rt_v12-rev0/mingw64/bin/../lib/gcc/x86_64-w64-mingw32/15.1.0/../../../../x86_64-w64-mingw32/lib/../lib/libmsvcrt.a(libapi-ms-win-crt-runtime-l1-1-0s00025.o)
                0x00000001400028f8                _configure_wide_argv
 .text          0x0000000140002900        0x8 C:/Users/lenovo/Downloads/x86_64-15.1.0-release-win32-seh-ucrt-rt_v12-rev0/mingw64/bin/../lib/gcc/x86_64-w64-mingw32/15.1.0/../../../../x86_64-w64-mingw32/lib/../lib/libmsvcrt.a(libapi-ms-win-crt-runtime-l1-1-0s00029.o)
                0x0000000140002900                _crt_at_quick_exit
 .text          0x0000000140002908        0x8 C:/Users/lenovo/Downloads/x86_64-15.1.0-release-win32-seh-ucrt-rt_v12-rev0/mingw64/bin/../lib/gcc/x86_64-w64-mingw32/15.1.0/../../../../x86_64-w64-mingw32/lib/../lib/libmsvcrt.a(libapi-ms-win-crt-runtime-l1-1-0s00030.o)
                0x0000000140002908                _crt_atexit
 .text          0x0000000140002910        0x0 C:/Users/lenovo/Downloads/x86_64-15.1.0-release-win32-seh-ucrt-rt_v12-rev0/mingw64/bin/../lib/gcc/x86_64-w64-mingw32/15.1.0/../../../../x86_64-w64-mingw32/lib/../lib/libmsvcrt.a(libapi-ms-win-crt-runtime-l1-1-0s00036.o)
 .text          0x0000000140002910        0x8 C:/Users/lenovo/Downloads/x86_64-15.1.0-release-win32-seh-ucrt-rt_v12-rev0/mingw64/bin/../lib/gcc/x86_64-w64-mingw32/15.1.0/../../../../x86_64-w64-mingw32/lib/../lib/libmsvcrt.a(libapi-ms-win-crt-runtime-l1-1-0s00053.o)
                0x0000000140002910                _initialize_narrow_environment
 .text          0x0000000140002918        0x8 C:/Users/lenovo/Downloads/x86_64-15.1.0-release-win32-seh-ucrt-rt_v12-rev0/mingw64/bin/../lib/gcc/x86_64-w64-mingw32/15.1.0/../../../../x86_64-w64-mingw32/lib/../lib/libmsvcrt.a(libapi-ms-win-crt-runtime-l1-1-0s00055.o)
                0x0000000140002918                _initialize_wide_environment
 .text          0x0000000140002920        0x8 C:/Users/lenovo/Downloads/x86_64-15.1.0-release-win32-seh-ucrt-rt_v12-rev0/mingw64/bin/../lib/gcc/x86_64-w64-mingw32/15.1.0/../../../../x86_64-w64-mingw32/lib/../lib/libmsvcrt.a(libapi-ms-win-crt-runtime-l1-1-0s00056.o)
                0x0000000140002920                _initterm
 .text          0x0000000140002928        0x8 C:/Users/lenovo/Downloads/x86_64-15.1.0-release-win32-seh-ucrt-rt_v12-rev0/mingw64/bin/../lib/gcc/x86_64-w64-mingw32/15.1.0/../../../../x86_64-w64-mingw32/lib/../lib/libmsvcrt.a(libapi-ms-win-crt-runtime-l1-1-0s00068.o)
                0x0000000140002928                __set_app_type
 .text          0x0000000140002930        0x8 C:/Users/lenovo/Downloads/x86_64-15.1.0-release-win32-seh-ucrt-rt_v12-rev0/mingw64/bin/../lib/gcc/x86_64-w64-mingw32/15.1.0/../../../../x86_64-w64-mingw32/lib/../lib/libmsvcrt.a(libapi-ms-win-crt-runtime-l1-1-0s00074.o)
                0x0000000140002930                _set_invalid_parameter_handler
 .text          0x0000000140002938        0x8 C:/Users/lenovo/Downloads/x86_64-15.1.0-release-win32-seh-ucrt-rt_v12-rev0/mingw64/bin/../lib/gcc/x86_64-w64-mingw32/15.1.0/../../../../x86_64-w64-mingw32/lib/../lib/libmsvcrt.a(libapi-ms-win-crt-runtime-l1-1-0s00087.o)
                0x0000000140002938                abort
 .text          0x0000000140002940        0x0 C:/Users/lenovo/Downloads/x86_64-15.1.0-release-win32-seh-ucrt-rt_v12-rev0/mingw64/bin/../lib/gcc/x86_64-w64-mingw32/15.1.0/../../../../x86_64-w64-mingw32/lib/../lib/libmsvcrt.a(libapi-ms-win-crt-runtime-l1-1-0s00088.o)
 .text          0x0000000140002940        0x8 C:/Users/lenovo/Downloads/x86_64-15.1.0-release-win32-seh-ucrt-rt_v12-rev0/mingw64/bin/../lib/gcc/x86_64-w64-mingw32/15.1.0/../../../../x86_64-w64-mingw32/lib/../lib/libmsvcrt.a(libapi-ms-win-crt-runtime-l1-1-0s00102.o)
                0x0000000140002940                signal
 *fill*         0x0000000140002948        0x8 
 .text          0x0000000140002950        0x0 C:/Users/lenovo/Downloads/x86_64-15.1.0-release-win32-seh-ucrt-rt_v12-rev0/mingw64/bin/../lib/gcc/x86_64-w64-mingw32/15.1.0/../../../../x86_64-w64-mingw32/lib/../lib/libmsvcrt.a(libapi-ms-win-crt-runtime-l1-1-0h.o)
 .text          0x0000000140002950        0x0 C:/Users/lenovo/Downloads/x86_64-15.1.0-release-win32-seh-ucrt-rt_v12-rev0/mingw64/bin/../lib/gcc/x86_64-w64-mingw32/15.1.0/../../../../x86_64-w64-mingw32/lib/../lib/libmsvcrt.a(libapi-ms-win-crt-runtime-l1-1-0t.o)
 .text          0x0000000140002950        0x8 C:/Users/lenovo/Downloads/x86_64-15.1.0-release-win32-seh-ucrt-rt_v12-rev0/mingw64/bin/../lib/gcc/x86_64-w64-mingw32/15.1.0/../../../../x86_64-w64-mingw32/lib/../lib/libmsvcrt.a(libapi-ms-win-crt-private-l1-1-0s00015.o)
                0x0000000140002950                __C_specific_handler
 .text          0x0000000140002958        0x8 C:/Users/lenovo/Downloads/x86_64-15.1.0-release-win32-seh-ucrt-rt_v12-rev0/mingw64/bin/../lib/gcc/x86_64-w64-mingw32/15.1.0/../../../../x86_64-w64-mingw32/lib/../lib/libmsvcrt.a(libapi-ms-win-crt-private-l1-1-0s01143.o)
                0x0000000140002958                memcpy
 .text          0x0000000140002960        0x0 C:/Users/lenovo/Downloads/x86_64-15.1.0-release-win32-seh-ucrt-rt_v12-rev0/mingw64/bin/../lib/gcc/x86_64-w64-mingw32/15.1.0/../../../../x86_64-w64-mingw32/lib/../lib/libmsvcrt.a(libapi-ms-win-crt-private-l1-1-0h.o)
 .text          0x0000000140002960        0x0 C:/Users/lenovo/Downloads/x86_64-15.1.0-release-win32-seh-ucrt-rt_v12-rev0/mingw64/bin/../lib/gcc/x86_64-w64-mingw32/15.1.0/../../../../x86_64-w64-mingw32/lib/../lib/libmsvcrt.a(libapi-ms-win-crt-private-l1-1-0t.o)
 .text          0x0000000140002960        0x8 C:/Users/lenovo/Downloads/x86_64-15.1.0-release-win32-seh-ucrt-rt_v12-rev0/mingw64/bin/../lib/gcc/x86_64-w64-mingw32/15.1.0/../../../../x86_64-w64-mingw32/lib/../lib/libmsvcrt.a(libapi-ms-win-crt-math-l1-1-0s00009.o)
                0x0000000140002960                __setusermatherr
 *fill*         0x0000000140002968        0x8 
 .text          0x0000000140002970        0x0 C:/Users/lenovo/Downloads/x86_64-15.1.0-release-win32-seh-ucrt-rt_v12-rev0/mingw64/bin/../lib/gcc/x86_64-w64-mingw32/15.1.0/../../../../x86_64-w64-mingw32/lib/../lib/libmsvcrt.a(libapi-ms-win-crt-math-l1-1-0h.o)
 .text          0x0000000140002970        0x0 C:/Users/lenovo/Downloads/x86_64-15.1.0-release-win32-seh-ucrt-rt_v12-rev0/mingw64/bin/../lib/gcc/x86_64-w64-mingw32/15.1.0/../../../../x86_64-w64-mingw32/lib/../lib/libmsvcrt.a(libapi-ms-win-crt-math-l1-1-0t.o)
 .text          0x0000000140002970        0x8 C:/Users/lenovo/Downloads/x86_64-15.1.0-release-win32-seh-ucrt-rt_v12-rev0/mingw64/bin/../lib/gcc/x86_64-w64-mingw32/15.1.0/../../../../x86_64-w64-mingw32/lib/../lib/libmsvcrt.a(libapi-ms-win-crt-heap-l1-1-0s00023.o)
                0x0000000140002970                _set_new_mode
 .text          0x0000000140002978        0x8 C:/Users/lenovo/Downloads/x86_64-15.1.0-release-win32-seh-ucrt-rt_v12-rev0/mingw64/bin/../lib/gcc/x86_64-w64-mingw32/15.1.0/../../../../x86_64-w64-mingw32/lib/../lib/libmsvcrt.a(libapi-ms-win-crt-heap-l1-1-0s00024.o)
                0x0000000140002978                calloc
 .text          0x0000000140002980        0x8 C:/Users/lenovo/Downloads/x86_64-15.1.0-release-win32-seh-ucrt-rt_v12-rev0/mingw64/bin/../lib/gcc/x86_64-w64-mingw32/15.1.0/../../../../x86_64-w64-mingw32/lib/../lib/libmsvcrt.a(libapi-ms-win-crt-heap-l1-1-0s00025.o)
                0x0000000140002980                free
 .text          0x0000000140002988        0x8 C:/Users/lenovo/Downloads/x86_64-15.1.0-release-win32-seh-ucrt-rt_v12-rev0/mingw64/bin/../lib/gcc/x86_64-w64-mingw32/15.1.0/../../../../x86_64-w64-mingw32/lib/../lib/libmsvcrt.a(libapi-ms-win-crt-heap-l1-1-0s00026.o)
                0x0000000140002988                malloc
 .text          0x0000000140002990        0x0 C:/Users/lenovo/Downloads/x86_64-15.1.0-release-win32-seh-ucrt-rt_v12-rev0/mingw64/bin/../lib/gcc/x86_64-w64-mingw32/15.1.0/../../../../x86_64-w64-mingw32/lib/../lib/libmsvcrt.a(libapi-ms-win-crt-heap-l1-1-0h.o)
 .text          0x0000000140002990        0x0 C:/Users/lenovo/Downloads/x86_64-15.1.0-release-win32-seh-ucrt-rt_v12-rev0/mingw64/bin/../lib/gcc/x86_64-w64-mingw32/15.1.0/../../../../x86_64-w64-mingw32/lib/../lib/libmsvcrt.a(libapi-ms-win-crt-heap-l1-1-0t.o)
 .text          0x0000000140002990        0x8 C:/Users/lenovo/Downloads/x86_64-15.1.0-release-win32-seh-ucrt-rt_v12-rev0/mingw64/bin/../lib/gcc/x86_64-w64-mingw32/15.1.0/../../../../x86_64-w64-mingw32/lib/../lib/libmsvcrt.a(libapi-ms-win-crt-environment-l1-1-0s00000.o)
                0x0000000140002990                __p__environ
 .text          0x0000000140002998        0x8 C:/Users/lenovo/Downloads/x86_64-15.1.0-release-win32-seh-ucrt-rt_v12-rev0/mingw64/bin/../lib/gcc/x86_64-w64-mingw32/15.1.0/../../../../x86_64-w64-mingw32/lib/../lib/libmsvcrt.a(libapi-ms-win-crt-environment-l1-1-0s00001.o)
                0x0000000140002998                __p__wenviron
 .text          0x00000001400029a0        0x0 C:/Users/lenovo/Downloads/x86_64-15.1.0-release-win32-seh-ucrt-rt_v12-rev0/mingw64/bin/../lib/gcc/x86_64-w64-mingw32/15.1.0/../../../../x86_64-w64-mingw32/lib/../lib/libmsvcrt.a(libapi-ms-win-crt-environment-l1-1-0h.o)
 .text          0x00000001400029a0        0x0 C:/Users/lenovo/Downloads/x86_64-15.1.0-release-win32-seh-ucrt-rt_v12-rev0/mingw64/bin/../lib/gcc/x86_64-w64-mingw32/15.1.0/../../../../x86_64-w64-mingw32/lib/../lib/libmsvcrt.a(libapi-ms-win-crt-environment-l1-1-0t.o)
 .text          0x00000001400029a0        0x8 C:/Users/lenovo/Downloads/x86_64-15.1.0-release-win32-seh-ucrt-rt_v12-rev0/mingw64/bin/../lib/gcc/x86_64-w64-mingw32/15.1.0/../../../../x86_64-w64-mingw32/lib/../lib/libkernel32.a(libkernel32s01528.o)
                0x00000001400029a0                VirtualQuery
 .text          0x00000001400029a8        0x8 C:/Users/lenovo/Downloads/x86_64-15.1.0-release-win32-seh-ucrt-rt_v12-rev0/mingw64/bin/../lib/gcc/x86_64-w64-mingw32/15.1.0/../../../../x86_64-w64-mingw32/lib/../lib/libkernel32.a(libkernel32s01526.o)
                0x00000001400029a8                VirtualProtect
 .text          0x00000001400029b0        0x8 C:/Users/lenovo/Downloads/x86_64-15.1.0-release-win32-seh-ucrt-rt_v12-rev0/mingw64/bin/../lib/gcc/x86_64-w64-mingw32/15.1.0/../../../../x86_64-w64-mingw32/lib/../lib/libkernel32.a(libkernel32s01479.o)
                0x00000001400029b0                TlsGetValue
 .text          0x00000001400029b8        0x8 C:/Users/lenovo/Downloads/x86_64-15.1.0-release-win32-seh-ucrt-rt_v12-rev0/mingw64/bin/../lib/gcc/x86_64-w64-mingw32/15.1.0/../../../../x86_64-w64-mingw32/lib/../lib/libkernel32.a(libkernel32s01443.o)
                0x00000001400029b8                Sleep
 .text          0x00000001400029c0        0x8 C:/Users/lenovo/Downloads/x86_64-15.1.0-release-win32-seh-ucrt-rt_v12-rev0/mingw64/bin/../lib/gcc/x86_64-w64-mingw32/15.1.0/../../../../x86_64-w64-mingw32/lib/../lib/libkernel32.a(libkernel32s01427.o)
                0x00000001400029c0                SetUnhandledExceptionFilter
 .text          0x00000001400029c8        0x8 C:/Users/lenovo/Downloads/x86_64-15.1.0-release-win32-seh-ucrt-rt_v12-rev0/mingw64/bin/../lib/gcc/x86_64-w64-mingw32/15.1.0/../../../../x86_64-w64-mingw32/lib/../lib/libkernel32.a(libkernel32s01007.o)
                0x00000001400029c8                LeaveCriticalSection
 .text          0x00000001400029d0        0x8 C:/Users/lenovo/Downloads/x86_64-15.1.0-release-win32-seh-ucrt-rt_v12-rev0/mingw64/bin/../lib/gcc/x86_64-w64-mingw32/15.1.0/../../../../x86_64-w64-mingw32/lib/../lib/libkernel32.a(libkernel32s00913.o)
                0x00000001400029d0                InitializeCriticalSection
 .text          0x00000001400029d8        0x8 C:/Users/lenovo/Downloads/x86_64-15.1.0-release-win32-seh-ucrt-rt_v12-rev0/mingw64/bin/../lib/gcc/x86_64-w64-mingw32/15.1.0/../../../../x86_64-w64-mingw32/lib/../lib/libkernel32.a(libkernel32s00643.o)
                0x00000001400029d8                GetLastError
 .text          0x00000001400029e0        0x8 C:/Users/lenovo/Downloads/x86_64-15.1.0-release-win32-seh-ucrt-rt_v12-rev0/mingw64/bin/../lib/gcc/x86_64-w64-mingw32/15.1.0/../../../../x86_64-w64-mingw32/lib/../lib/libkernel32.a(libkernel32s00330.o)
                0x00000001400029e0                EnterCriticalSection
 .text          0x00000001400029e8        0x8 C:/Users/lenovo/Downloads/x86_64-15.1.0-release-win32-seh-ucrt-rt_v12-rev0/mingw64/bin/../lib/gcc/x86_64-w64-mingw32/15.1.0/../../../../x86_64-w64-mingw32/lib/../lib/libkernel32.a(libkernel32s00292.o)
                0x00000001400029e8                DeleteCriticalSection
 .text          0x00000001400029f0        0x0 C:/Users/lenovo/Downloads/x86_64-15.1.0-release-win32-seh-ucrt-rt_v12-rev0/mingw64/bin/../lib/gcc/x86_64-w64-mingw32/15.1.0/../../../../x86_64-w64-mingw32/lib/../lib/libkernel32.a(libkernel32h.o)
 .text          0x00000001400029f0        0x0 C:/Users/lenovo/Downloads/x86_64-15.1.0-release-win32-seh-ucrt-rt_v12-rev0/mingw64/bin/../lib/gcc/x86_64-w64-mingw32/15.1.0/../../../../x86_64-w64-mingw32/lib/../lib/libkernel32.a(libkernel32t.o)
 .text          0x00000001400029f0        0x0 C:/Users/lenovo/Downloads/x86_64-15.1.0-release-win32-seh-ucrt-rt_v12-rev0/mingw64/bin/../lib/gcc/x86_64-w64-mingw32/15.1.0/crtend.o
 *(SORT_BY_NAME(.text$*))
 *(.text.*)
 .text.startup  0x00000001400029f0       0x10 C:/Users/lenovo/Downloads/x86_64-15.1.0-release-win32-seh-ucrt-rt_v12-rev0/mingw64/bin/../lib/gcc/x86_64-w64-mingw32/15.1.0/crtend.o
 *(.gnu.linkonce.t.*)
 *(.glue_7t)
 *(.glue_7)
                0x0000000140002a00                . = ALIGN (0x8)
 *(SORT_NONE(.fini))
 *(.gcc_exc)
                [!provide]                        PROVIDE (etext = .)
 *(.gcc_except_table)

.data           0x0000000140003000      0x200
                0x0000000140003000                __data_start__ = .
 *(.data)
 .data          0x0000000140003000        0x0 C:/Users/lenovo/Downloads/x86_64-15.1.0-release-win32-seh-ucrt-rt_v12-rev0/mingw64/bin/../lib/gcc/x86_64-w64-mingw32/15.1.0/../../../../x86_64-w64-mingw32/lib/../lib/crt2.o
 .data          0x0000000140003000        0x0 C:/Users/lenovo/Downloads/x86_64-15.1.0-release-win32-seh-ucrt-rt_v12-rev0/mingw64/bin/../lib/gcc/x86_64-w64-mingw32/15.1.0/crtbegin.o
 .data          0x0000000140003000        0x0 build/o/Static.o
 .data          0x0000000140003000        0x0 build/o/test.o
 .data          0x0000000140003000       0x10 C:/Users/lenovo/Downloads/x86_64-15.1.0-release-win32-seh-ucrt-rt_v12-rev0/mingw64/bin/../lib/gcc/x86_64-w64-mingw32/15.1.0/../../../../x86_64-w64-mingw32/lib/../lib/libmingw32.a(lib64_libmingw32_a-gccmain.o)
 .data          0x0000000140003010       0x10 C:/Users/lenovo/Downloads/x86_64-15.1.0-release-win32-seh-ucrt-rt_v12-rev0/mingw64/bin/../lib/gcc/x86_64-w64-mingw32/15.1.0/../../../../x86_64-w64-mingw32/lib/../lib/libmingw32.a(lib64_libmingw32_a-natstart.o)
                0x0000000140003010                __native_vcclrit_reason
                0x0000000140003014                __native_dllmain_reason
 .data          0x0000000140003020        0x0 C:/Users/lenovo/Downloads/x86_64-15.1.0-release-win32-seh-ucrt-rt_v12-rev0/mingw64/bin/../lib/gcc/x86_64-w64-mingw32/15.1.0/../../../../x86_64-w64-mingw32/lib/../lib/libmingw32.a(lib64_libmingw32_a-wildcard.o)
 .data          0x0000000140003020        0x0 C:/Users/lenovo/Downloads/x86_64-15.1.0-release-win32-seh-ucrt-rt_v12-rev0/mingw64/bin/../lib/gcc/x86_64-w64-mingw32/15.1.0/../../../../x86_64-w64-mingw32/lib/../lib/libmingw32.a(lib64_libmingw32_a-dllargv.o)
 .data          0x0000000140003020        0x0 C:/Users/lenovo/Downloads/x86_64-15.1.0-release-win32-seh-ucrt-rt_v12-rev0/mingw64/bin/../lib/gcc/x86_64-w64-mingw32/15.1.0/../../../../x86_64-w64-mingw32/lib/../lib/libmingw32.a(lib64_libmingw32_a-_newmode.o)
 .data          0x0000000140003020        0x0 C:/Users/lenovo/Downloads/x86_64-15.1.0-release-win32-seh-ucrt-rt_v12-rev0/mingw64/bin/../lib/gcc/x86_64-w64-mingw32/15.1.0/../../../../x86_64-w64-mingw32/lib/../lib/libmingw32.a(lib64_libmingw32_a-tlssup.o)
 .data          0x0000000140003020        0x0 C:/Users/lenovo/Downloads/x86_64-15.1.0-release-win32-seh-ucrt-rt_v12-rev0/mingw64/bin/../lib/gcc/x86_64-w64-mingw32/15.1.0/../../../../x86_64-w64-mingw32/lib/../lib/libmingw32.a(lib64_libmingw32_a-xncommod.o)
 .data          0x0000000140003020        0x0 C:/Users/lenovo/Downloads/x86_64-15.1.0-release-win32-seh-ucrt-rt_v12-rev0/mingw64/bin/../lib/gcc/x86_64-w64-mingw32/15.1.0/../../../../x86_64-w64-mingw32/lib/../lib/libmingw32.a(lib64_libmingw32_a-cinitexe.o)
 .data          0x0000000140003020        0x0 C:/Users/lenovo/Downloads/x86_64-15.1.0-release-win32-seh-ucrt-rt_v12-rev0/mingw64/bin/../lib/gcc/x86_64-w64-mingw32/15.1.0/../../../../x86_64-w64-mingw32/lib/../lib/libmingw32.a(lib64_libmingw32_a-merr.o)
 .data          0x0000000140003020        0x0 C:/Users/lenovo/Downloads/x86_64-15.1.0-release-win32-seh-ucrt-rt_v12-rev0/mingw64/bin/../lib/gcc/x86_64-w64-mingw32/15.1.0/../../../../x86_64-w64-mingw32/lib/../lib/libmingw32.a(lib64_libmingw32_a-CRT_fp10.o)
 .data          0x0000000140003020        0x0 C:/Users/lenovo/Downloads/x86_64-15.1.0-release-win32-seh-ucrt-rt_v12-rev0/mingw64/bin/../lib/gcc/x86_64-w64-mingw32/15.1.0/../../../../x86_64-w64-mingw32/lib/../lib/libmingw32.a(lib64_libmingw32_a-mingw_helpers.o)
 .data          0x0000000140003020        0x0 C:/Users/lenovo/Downloads/x86_64-15.1.0-release-win32-seh-ucrt-rt_v12-rev0/mingw64/bin/../lib/gcc/x86_64-w64-mingw32/15.1.0/../../../../x86_64-w64-mingw32/lib/../lib/libmingw32.a(lib64_libmingw32_a-pseudo-reloc.o)
 .data          0x0000000140003020        0x0 C:/Users/lenovo/Downloads/x86_64-15.1.0-release-win32-seh-ucrt-rt_v12-rev0/mingw64/bin/../lib/gcc/x86_64-w64-mingw32/15.1.0/../../../../x86_64-w64-mingw32/lib/../lib/libmingw32.a(lib64_libmingw32_a-usermatherr.o)
 .data          0x0000000140003020        0x0 C:/Users/lenovo/Downloads/x86_64-15.1.0-release-win32-seh-ucrt-rt_v12-rev0/mingw64/bin/../lib/gcc/x86_64-w64-mingw32/15.1.0/../../../../x86_64-w64-mingw32/lib/../lib/libmingw32.a(lib64_libmingw32_a-xtxtmode.o)
 .data          0x0000000140003020        0x0 C:/Users/lenovo/Downloads/x86_64-15.1.0-release-win32-seh-ucrt-rt_v12-rev0/mingw64/bin/../lib/gcc/x86_64-w64-mingw32/15.1.0/../../../../x86_64-w64-mingw32/lib/../lib/libmingw32.a(lib64_libmingw32_a-crt_handler.o)
 .data          0x0000000140003020        0x0 C:/Users/lenovo/Downloads/x86_64-15.1.0-release-win32-seh-ucrt-rt_v12-rev0/mingw64/bin/../lib/gcc/x86_64-w64-mingw32/15.1.0/../../../../x86_64-w64-mingw32/lib/../lib/libmingw32.a(lib64_libmingw32_a-tlsthrd.o)
 .data          0x0000000140003020       0x10 C:/Users/lenovo/Downloads/x86_64-15.1.0-release-win32-seh-ucrt-rt_v12-rev0/mingw64/bin/../lib/gcc/x86_64-w64-mingw32/15.1.0/../../../../x86_64-w64-mingw32/lib/../lib/libmingw32.a(lib64_libmingw32_a-tlsmcrt.o)
                0x0000000140003020                _CRT_MT
 .data          0x0000000140003030        0x0 C:/Users/lenovo/Downloads/x86_64-15.1.0-release-win32-seh-ucrt-rt_v12-rev0/mingw64/bin/../lib/gcc/x86_64-w64-mingw32/15.1.0/../../../../x86_64-w64-mingw32/lib/../lib/libmingw32.a(lib64_libmingw32_a-exit_wrappers.o)
 .data          0x0000000140003030        0x0 C:/Users/lenovo/Downloads/x86_64-15.1.0-release-win32-seh-ucrt-rt_v12-rev0/mingw64/bin/../lib/gcc/x86_64-w64-mingw32/15.1.0/../../../../x86_64-w64-mingw32/lib/../lib/libmingw32.a(lib64_libmingw32_a-pseudo-reloc-list.o)
 .data          0x0000000140003030        0x0 C:/Users/lenovo/Downloads/x86_64-15.1.0-release-win32-seh-ucrt-rt_v12-rev0/mingw64/bin/../lib/gcc/x86_64-w64-mingw32/15.1.0/../../../../x86_64-w64-mingw32/lib/../lib/libmingw32.a(lib64_libmingw32_a-pesect.o)
 .data          0x0000000140003030        0x0 C:/Users/lenovo/Downloads/x86_64-15.1.0-release-win32-seh-ucrt-rt_v12-rev0/mingw64/bin/../lib/gcc/x86_64-w64-mingw32/15.1.0/libgcc.a(_chkstk_ms.o)
 .data          0x0000000140003030        0x0 C:/Users/lenovo/Downloads/x86_64-15.1.0-release-win32-seh-ucrt-rt_v12-rev0/mingw64/bin/../lib/gcc/x86_64-w64-mingw32/15.1.0/libgcc.a(_ctors.o)
 .data          0x0000000140003030       0x10 C:/Users/lenovo/Downloads/x86_64-15.1.0-release-win32-seh-ucrt-rt_v12-rev0/mingw64/bin/../lib/gcc/x86_64-w64-mingw32/15.1.0/../../../../x86_64-w64-mingw32/lib/../lib/libmingwex.a(lib64_libmingwex_a-mingw_matherr.o)
                0x0000000140003030                _MINGW_INSTALL_DEBUG_MATHERR
 .data          0x0000000140003040       0x10 C:/Users/lenovo/Downloads/x86_64-15.1.0-release-win32-seh-ucrt-rt_v12-rev0/mingw64/bin/../lib/gcc/x86_64-w64-mingw32/15.1.0/../../../../x86_64-w64-mingw32/lib/../lib/libmsvcrt.a(lib64_libucrt_extra_a-ucrt_vfprintf.o)
                0x0000000140003040                __imp_vfprintf
 .data          0x0000000140003050       0x10 C:/Users/lenovo/Downloads/x86_64-15.1.0-release-win32-seh-ucrt-rt_v12-rev0/mingw64/bin/../lib/gcc/x86_64-w64-mingw32/15.1.0/../../../../x86_64-w64-mingw32/lib/../lib/libmsvcrt.a(lib64_libucrt_extra_a-ucrt_fprintf.o)
                0x0000000140003050                __imp_fprintf
 .data          0x0000000140003060       0x10 C:/Users/lenovo/Downloads/x86_64-15.1.0-release-win32-seh-ucrt-rt_v12-rev0/mingw64/bin/../lib/gcc/x86_64-w64-mingw32/15.1.0/../../../../x86_64-w64-mingw32/lib/../lib/libmsvcrt.a(lib64_libucrt_extra_a-__initenv.o)
                0x0000000140003060                __imp___winitenv
                0x0000000140003068                __imp___initenv
 .data          0x0000000140003070       0x80 C:/Users/lenovo/Downloads/x86_64-15.1.0-release-win32-seh-ucrt-rt_v12-rev0/mingw64/bin/../lib/gcc/x86_64-w64-mingw32/15.1.0/../../../../x86_64-w64-mingw32/lib/../lib/libmsvcrt.a(lib64_libucrt_extra_a-ucrtbase_compat.o)
                0x0000000140003070                __imp___ms_fwprintf
                0x0000000140003078                __imp_tzset
                0x0000000140003080                __imp__get_output_format
                0x0000000140003088                __imp__amsg_exit
                0x0000000140003090                __imp___wgetmainargs
                0x0000000140003098                __imp___getmainargs
                0x00000001400030a0                __imp_daylight
                0x00000001400030a8                __imp_timezone
                0x00000001400030b0                __imp_tzname
                0x00000001400030d8                __imp_at_quick_exit
                0x00000001400030e0                __imp__onexit
 .data          0x00000001400030f0        0x0 C:/Users/lenovo/Downloads/x86_64-15.1.0-release-win32-seh-ucrt-rt_v12-rev0/mingw64/bin/../lib/gcc/x86_64-w64-mingw32/15.1.0/../../../../x86_64-w64-mingw32/lib/../lib/libmsvcrt.a(libapi-ms-win-crt-time-l1-1-0s00010.o)
 .data          0x00000001400030f0        0x0 C:/Users/lenovo/Downloads/x86_64-15.1.0-release-win32-seh-ucrt-rt_v12-rev0/mingw64/bin/../lib/gcc/x86_64-w64-mingw32/15.1.0/../../../../x86_64-w64-mingw32/lib/../lib/libmsvcrt.a(libapi-ms-win-crt-time-l1-1-0s00012.o)
 .data          0x00000001400030f0        0x0 C:/Users/lenovo/Downloads/x86_64-15.1.0-release-win32-seh-ucrt-rt_v12-rev0/mingw64/bin/../lib/gcc/x86_64-w64-mingw32/15.1.0/../../../../x86_64-w64-mingw32/lib/../lib/libmsvcrt.a(libapi-ms-win-crt-time-l1-1-0s00013.o)
 .data          0x00000001400030f0        0x0 C:/Users/lenovo/Downloads/x86_64-15.1.0-release-win32-seh-ucrt-rt_v12-rev0/mingw64/bin/../lib/gcc/x86_64-w64-mingw32/15.1.0/../../../../x86_64-w64-mingw32/lib/../lib/libmsvcrt.a(libapi-ms-win-crt-time-l1-1-0s00061.o)
 .data          0x00000001400030f0        0x0 C:/Users/lenovo/Downloads/x86_64-15.1.0-release-win32-seh-ucrt-rt_v12-rev0/mingw64/bin/../lib/gcc/x86_64-w64-mingw32/15.1.0/../../../../x86_64-w64-mingw32/lib/../lib/libmsvcrt.a(libapi-ms-win-crt-time-l1-1-0h.o)
 .data          0x00000001400030f0        0x0 C:/Users/lenovo/Downloads/x86_64-15.1.0-release-win32-seh-ucrt-rt_v12-rev0/mingw64/bin/../lib/gcc/x86_64-w64-mingw32/15.1.0/../../../../x86_64-w64-mingw32/lib/../lib/libmsvcrt.a(libapi-ms-win-crt-time-l1-1-0t.o)
 .data          0x00000001400030f0        0x0 C:/Users/lenovo/Downloads/x86_64-15.1.0-release-win32-seh-ucrt-rt_v12-rev0/mingw64/bin/../lib/gcc/x86_64-w64-mingw32/15.1.0/../../../../x86_64-w64-mingw32/lib/../lib/libmsvcrt.a(libapi-ms-win-crt-string-l1-1-0s00167.o)
 .data          0x00000001400030f0        0x0 C:/Users/lenovo/Downloads/x86_64-15.1.0-release-win32-seh-ucrt-rt_v12-rev0/mingw64/bin/../lib/gcc/x86_64-w64-mingw32/15.1.0/../../../../x86_64-w64-mingw32/lib/../lib/libmsvcrt.a(libapi-ms-win-crt-string-l1-1-0s00170.o)
 .data          0x00000001400030f0        0x0 C:/Users/lenovo/Downloads/x86_64-15.1.0-release-win32-seh-ucrt-rt_v12-rev0/mingw64/bin/../lib/gcc/x86_64-w64-mingw32/15.1.0/../../../../x86_64-w64-mingw32/lib/../lib/libmsvcrt.a(libapi-ms-win-crt-string-l1-1-0h.o)
 .data          0x00000001400030f0        0x0 C:/Users/lenovo/Downloads/x86_64-15.1.0-release-win32-seh-ucrt-rt_v12-rev0/mingw64/bin/../lib/gcc/x86_64-w64-mingw32/15.1.0/../../../../x86_64-w64-mingw32/lib/../lib/libmsvcrt.a(libapi-ms-win-crt-string-l1-1-0t.o)
 .data          0x00000001400030f0        0x0 C:/Users/lenovo/Downloads/x86_64-15.1.0-release-win32-seh-ucrt-rt_v12-rev0/mingw64/bin/../lib/gcc/x86_64-w64-mingw32/15.1.0/../../../../x86_64-w64-mingw32/lib/../lib/libmsvcrt.a(libapi-ms-win-crt-stdio-l1-1-0s00000.o)
 .data          0x00000001400030f0        0x0 C:/Users/lenovo/Downloads/x86_64-15.1.0-release-win32-seh-ucrt-rt_v12-rev0/mingw64/bin/../lib/gcc/x86_64-w64-mingw32/15.1.0/../../../../x86_64-w64-mingw32/lib/../lib/libmsvcrt.a(libapi-ms-win-crt-stdio-l1-1-0s00001.o)
 .data          0x00000001400030f0        0x0 C:/Users/lenovo/Downloads/x86_64-15.1.0-release-win32-seh-ucrt-rt_v12-rev0/mingw64/bin/../lib/gcc/x86_64-w64-mingw32/15.1.0/../../../../x86_64-w64-mingw32/lib/../lib/libmsvcrt.a(libapi-ms-win-crt-stdio-l1-1-0s00002.o)
 .data          0x00000001400030f0        0x0 C:/Users/lenovo/Downloads/x86_64-15.1.0-release-win32-seh-ucrt-rt_v12-rev0/mingw64/bin/../lib/gcc/x86_64-w64-mingw32/15.1.0/../../../../x86_64-w64-mingw32/lib/../lib/libmsvcrt.a(libapi-ms-win-crt-stdio-l1-1-0s00003.o)
 .data          0x00000001400030f0        0x0 C:/Users/lenovo/Downloads/x86_64-15.1.0-release-win32-seh-ucrt-rt_v12-rev0/mingw64/bin/../lib/gcc/x86_64-w64-mingw32/15.1.0/../../../../x86_64-w64-mingw32/lib/../lib/libmsvcrt.a(libapi-ms-win-crt-stdio-l1-1-0s00007.o)
 .data          0x00000001400030f0        0x0 C:/Users/lenovo/Downloads/x86_64-15.1.0-release-win32-seh-ucrt-rt_v12-rev0/mingw64/bin/../lib/gcc/x86_64-w64-mingw32/15.1.0/../../../../x86_64-w64-mingw32/lib/../lib/libmsvcrt.a(libapi-ms-win-crt-stdio-l1-1-0s00169.o)
 .data          0x00000001400030f0        0x0 C:/Users/lenovo/Downloads/x86_64-15.1.0-release-win32-seh-ucrt-rt_v12-rev0/mingw64/bin/../lib/gcc/x86_64-w64-mingw32/15.1.0/../../../../x86_64-w64-mingw32/lib/../lib/libmsvcrt.a(libapi-ms-win-crt-stdio-l1-1-0h.o)
 .data          0x00000001400030f0        0x0 C:/Users/lenovo/Downloads/x86_64-15.1.0-release-win32-seh-ucrt-rt_v12-rev0/mingw64/bin/../lib/gcc/x86_64-w64-mingw32/15.1.0/../../../../x86_64-w64-mingw32/lib/../lib/libmsvcrt.a(libapi-ms-win-crt-stdio-l1-1-0t.o)
 .data          0x00000001400030f0        0x0 C:/Users/lenovo/Downloads/x86_64-15.1.0-release-win32-seh-ucrt-rt_v12-rev0/mingw64/bin/../lib/gcc/x86_64-w64-mingw32/15.1.0/../../../../x86_64-w64-mingw32/lib/../lib/libmsvcrt.a(libapi-ms-win-crt-runtime-l1-1-0s00004.o)
 .data          0x00000001400030f0        0x0 C:/Users/lenovo/Downloads/x86_64-15.1.0-release-win32-seh-ucrt-rt_v12-rev0/mingw64/bin/../lib/gcc/x86_64-w64-mingw32/15.1.0/../../../../x86_64-w64-mingw32/lib/../lib/libmsvcrt.a(libapi-ms-win-crt-runtime-l1-1-0s00005.o)
 .data          0x00000001400030f0        0x0 C:/Users/lenovo/Downloads/x86_64-15.1.0-release-win32-seh-ucrt-rt_v12-rev0/mingw64/bin/../lib/gcc/x86_64-w64-mingw32/15.1.0/../../../../x86_64-w64-mingw32/lib/../lib/libmsvcrt.a(libapi-ms-win-crt-runtime-l1-1-0s00006.o)
 .data          0x00000001400030f0        0x0 C:/Users/lenovo/Downloads/x86_64-15.1.0-release-win32-seh-ucrt-rt_v12-rev0/mingw64/bin/../lib/gcc/x86_64-w64-mingw32/15.1.0/../../../../x86_64-w64-mingw32/lib/../lib/libmsvcrt.a(libapi-ms-win-crt-runtime-l1-1-0s00022.o)
 .data          0x00000001400030f0        0x0 C:/Users/lenovo/Downloads/x86_64-15.1.0-release-win32-seh-ucrt-rt_v12-rev0/mingw64/bin/../lib/gcc/x86_64-w64-mingw32/15.1.0/../../../../x86_64-w64-mingw32/lib/../lib/libmsvcrt.a(libapi-ms-win-crt-runtime-l1-1-0s00024.o)
 .data          0x00000001400030f0        0x0 C:/Users/lenovo/Downloads/x86_64-15.1.0-release-win32-seh-ucrt-rt_v12-rev0/mingw64/bin/../lib/gcc/x86_64-w64-mingw32/15.1.0/../../../../x86_64-w64-mingw32/lib/../lib/libmsvcrt.a(libapi-ms-win-crt-runtime-l1-1-0s00025.o)
 .data          0x00000001400030f0        0x0 C:/Users/lenovo/Downloads/x86_64-15.1.0-release-win32-seh-ucrt-rt_v12-rev0/mingw64/bin/../lib/gcc/x86_64-w64-mingw32/15.1.0/../../../../x86_64-w64-mingw32/lib/../lib/libmsvcrt.a(libapi-ms-win-crt-runtime-l1-1-0s00029.o)
 .data          0x00000001400030f0        0x0 C:/Users/lenovo/Downloads/x86_64-15.1.0-release-win32-seh-ucrt-rt_v12-rev0/mingw64/bin/../lib/gcc/x86_64-w64-mingw32/15.1.0/../../../../x86_64-w64-mingw32/lib/../lib/libmsvcrt.a(libapi-ms-win-crt-runtime-l1-1-0s00030.o)
 .data          0x00000001400030f0        0x0 C:/Users/lenovo/Downloads/x86_64-15.1.0-release-win32-seh-ucrt-rt_v12-rev0/mingw64/bin/../lib/gcc/x86_64-w64-mingw32/15.1.0/../../../../x86_64-w64-mingw32/lib/../lib/libmsvcrt.a(libapi-ms-win-crt-runtime-l1-1-0s00036.o)
 .data          0x00000001400030f0        0x0 C:/Users/lenovo/Downloads/x86_64-15.1.0-release-win32-seh-ucrt-rt_v12-rev0/mingw64/bin/../lib/gcc/x86_64-w64-mingw32/15.1.0/../../../../x86_64-w64-mingw32/lib/../lib/libmsvcrt.a(libapi-ms-win-crt-runtime-l1-1-0s00053.o)
 .data          0x00000001400030f0        0x0 C:/Users/lenovo/Downloads/x86_64-15.1.0-release-win32-seh-ucrt-rt_v12-rev0/mingw64/bin/../lib/gcc/x86_64-w64-mingw32/15.1.0/../../../../x86_64-w64-mingw32/lib/../lib/libmsvcrt.a(libapi-ms-win-crt-runtime-l1-1-0s00055.o)
 .data          0x00000001400030f0        0x0 C:/Users/lenovo/Downloads/x86_64-15.1.0-release-win32-seh-ucrt-rt_v12-rev0/mingw64/bin/../lib/gcc/x86_64-w64-mingw32/15.1.0/../../../../x86_64-w64-mingw32/lib/../lib/libmsvcrt.a(libapi-ms-win-crt-runtime-l1-1-0s00056.o)
 .data          0x00000001400030f0        0x0 C:/Users/lenovo/Downloads/x86_64-15.1.0-release-win32-seh-ucrt-rt_v12-rev0/mingw64/bin/../lib/gcc/x86_64-w64-mingw32/15.1.0/../../../../x86_64-w64-mingw32/lib/../lib/libmsvcrt.a(libapi-ms-win-crt-runtime-l1-1-0s00068.o)
 .data          0x00000001400030f0        0x0 C:/Users/lenovo/Downloads/x86_64-15.1.0-release-win32-seh-ucrt-rt_v12-rev0/mingw64/bin/../lib/gcc/x86_64-w64-mingw32/15.1.0/../../../../x86_64-w64-mingw32/lib/../lib/libmsvcrt.a(libapi-ms-win-crt-runtime-l1-1-0s00074.o)
 .data          0x00000001400030f0        0x0 C:/Users/lenovo/Downloads/x86_64-15.1.0-release-win32-seh-ucrt-rt_v12-rev0/mingw64/bin/../lib/gcc/x86_64-w64-mingw32/15.1.0/../../../../x86_64-w64-mingw32/lib/../lib/libmsvcrt.a(libapi-ms-win-crt-runtime-l1-1-0s00087.o)
 .data          0x00000001400030f0        0x0 C:/Users/lenovo/Downloads/x86_64-15.1.0-release-win32-seh-ucrt-rt_v12-rev0/mingw64/bin/../lib/gcc/x86_64-w64-mingw32/15.1.0/../../../../x86_64-w64-mingw32/lib/../lib/libmsvcrt.a(libapi-ms-win-crt-runtime-l1-1-0s00088.o)
 .data          0x00000001400030f0        0x0 C:/Users/lenovo/Downloads/x86_64-15.1.0-release-win32-seh-ucrt-rt_v12-rev0/mingw64/bin/../lib/gcc/x86_64-w64-mingw32/15.1.0/../../../../x86_64-w64-mingw32/lib/../lib/libmsvcrt.a(libapi-ms-win-crt-runtime-l1-1-0s00102.o)
 .data          0x00000001400030f0        0x0 C:/Users/lenovo/Downloads/x86_64-15.1.0-release-win32-seh-ucrt-rt_v12-rev0/mingw64/bin/../lib/gcc/x86_64-w64-mingw32/15.1.0/../../../../x86_64-w64-mingw32/lib/../lib/libmsvcrt.a(libapi-ms-win-crt-runtime-l1-1-0h.o)
 .data          0x00000001400030f0        0x0 C:/Users/lenovo/Downloads/x86_64-15.1.0-release-win32-seh-ucrt-rt_v12-rev0/mingw64/bin/../lib/gcc/x86_64-w64-mingw32/15.1.0/../../../../x86_64-w64-mingw32/lib/../lib/libmsvcrt.a(libapi-ms-win-crt-runtime-l1-1-0t.o)
 .data          0x00000001400030f0        0x0 C:/Users/lenovo/Downloads/x86_64-15.1.0-release-win32-seh-ucrt-rt_v12-rev0/mingw64/bin/../lib/gcc/x86_64-w64-mingw32/15.1.0/../../../../x86_64-w64-mingw32/lib/../lib/libmsvcrt.a(libapi-ms-win-crt-private-l1-1-0s00015.o)
 .data          0x00000001400030f0        0x0 C:/Users/lenovo/Downloads/x86_64-15.1.0-release-win32-seh-ucrt-rt_v12-rev0/mingw64/bin/../lib/gcc/x86_64-w64-mingw32/15.1.0/../../../../x86_64-w64-mingw32/lib/../lib/libmsvcrt.a(libapi-ms-win-crt-private-l1-1-0s01143.o)
 .data          0x00000001400030f0        0x0 C:/Users/lenovo/Downloads/x86_64-15.1.0-release-win32-seh-ucrt-rt_v12-rev0/mingw64/bin/../lib/gcc/x86_64-w64-mingw32/15.1.0/../../../../x86_64-w64-mingw32/lib/../lib/libmsvcrt.a(libapi-ms-win-crt-private-l1-1-0h.o)
 .data          0x00000001400030f0        0x0 C:/Users/lenovo/Downloads/x86_64-15.1.0-release-win32-seh-ucrt-rt_v12-rev0/mingw64/bin/../lib/gcc/x86_64-w64-mingw32/15.1.0/../../../../x86_64-w64-mingw32/lib/../lib/libmsvcrt.a(libapi-ms-win-crt-private-l1-1-0t.o)
 .data          0x00000001400030f0        0x0 C:/Users/lenovo/Downloads/x86_64-15.1.0-release-win32-seh-ucrt-rt_v12-rev0/mingw64/bin/../lib/gcc/x86_64-w64-mingw32/15.1.0/../../../../x86_64-w64-mingw32/lib/../lib/libmsvcrt.a(libapi-ms-win-crt-math-l1-1-0s00009.o)
 .data          0x00000001400030f0        0x0 C:/Users/lenovo/Downloads/x86_64-15.1.0-release-win32-seh-ucrt-rt_v12-rev0/mingw64/bin/../lib/gcc/x86_64-w64-mingw32/15.1.0/../../../../x86_64-w64-mingw32/lib/../lib/libmsvcrt.a(libapi-ms-win-crt-math-l1-1-0h.o)
 .data          0x00000001400030f0        0x0 C:/Users/lenovo/Downloads/x86_64-15.1.0-release-win32-seh-ucrt-rt_v12-rev0/mingw64/bin/../lib/gcc/x86_64-w64-mingw32/15.1.0/../../../../x86_64-w64-mingw32/lib/../lib/libmsvcrt.a(libapi-ms-win-crt-math-l1-1-0t.o)
 .data          0x00000001400030f0        0x0 C:/Users/lenovo/Downloads/x86_64-15.1.0-release-win32-seh-ucrt-rt_v12-rev0/mingw64/bin/../lib/gcc/x86_64-w64-mingw32/15.1.0/../../../../x86_64-w64-mingw32/lib/../lib/libmsvcrt.a(libapi-ms-win-crt-heap-l1-1-0s00023.o)
 .data          0x00000001400030f0        0x0 C:/Users/lenovo/Downloads/x86_64-15.1.0-release-win32-seh-ucrt-rt_v12-rev0/mingw64/bin/../lib/gcc/x86_64-w64-mingw32/15.1.0/../../../../x86_64-w64-mingw32/lib/../lib/libmsvcrt.a(libapi-ms-win-crt-heap-l1-1-0s00024.o)
 .data          0x00000001400030f0        0x0 C:/Users/lenovo/Downloads/x86_64-15.1.0-release-win32-seh-ucrt-rt_v12-rev0/mingw64/bin/../lib/gcc/x86_64-w64-mingw32/15.1.0/../../../../x86_64-w64-mingw32/lib/../lib/libmsvcrt.a(libapi-ms-win-crt-heap-l1-1-0s00025.o)
 .data          0x00000001400030f0        0x0 C:/Users/lenovo/Downloads/x86_64-15.1.0-release-win32-seh-ucrt-rt_v12-rev0/mingw64/bin/../lib/gcc/x86_64-w64-mingw32/15.1.0/../../../../x86_64-w64-mingw32/lib/../lib/libmsvcrt.a(libapi-ms-win-crt-heap-l1-1-0s00026.o)
 .data          0x00000001400030f0        0x0 C:/Users/lenovo/Downloads/x86_64-15.1.0-release-win32-seh-ucrt-rt_v12-rev0/mingw64/bin/../lib/gcc/x86_64-w64-mingw32/15.1.0/../../../../x86_64-w64-mingw32/lib/../lib/libmsvcrt.a(libapi-ms-win-crt-heap-l1-1-0h.o)
 .data          0x00000001400030f0        0x0 C:/Users/lenovo/Downloads/x86_64-15.1.0-release-win32-seh-ucrt-rt_v12-rev0/mingw64/bin/../lib/gcc/x86_64-w64-mingw32/15.1.0/../../../../x86_64-w64-mingw32/lib/../lib/libmsvcrt.a(libapi-ms-win-crt-heap-l1-1-0t.o)
 .data          0x00000001400030f0        0x0 C:/Users/lenovo/Downloads/x86_64-15.1.0-release-win32-seh-ucrt-rt_v12-rev0/mingw64/bin/../lib/gcc/x86_64-w64-mingw32/15.1.0/../../../../x86_64-w64-mingw32/lib/../lib/libmsvcrt.a(libapi-ms-win-crt-environment-l1-1-0s00000.o)
 .data          0x00000001400030f0        0x0 C:/Users/lenovo/Downloads/x86_64-15.1.0-release-win32-seh-ucrt-rt_v12-rev0/mingw64/bin/../lib/gcc/x86_64-w64-mingw32/15.1.0/../../../../x86_64-w64-mingw32/lib/../lib/libmsvcrt.a(libapi-ms-win-crt-environment-l1-1-0s00001.o)
 .data          0x00000001400030f0        0x0 C:/Users/lenovo/Downloads/x86_64-15.1.0-release-win32-seh-ucrt-rt_v12-rev0/mingw64/bin/../lib/gcc/x86_64-w64-mingw32/15.1.0/../../../../x86_64-w64-mingw32/lib/../lib/libmsvcrt.a(libapi-ms-win-crt-environment-l1-1-0h.o)
 .data          0x00000001400030f0        0x0 C:/Users/lenovo/Downloads/x86_64-15.1.0-release-win32-seh-ucrt-rt_v12-rev0/mingw64/bin/../lib/gcc/x86_64-w64-mingw32/15.1.0/../../../../x86_64-w64-mingw32/lib/../lib/libmsvcrt.a(libapi-ms-win-crt-environment-l1-1-0t.o)
 .data          0x00000001400030f0        0x0 C:/Users/lenovo/Downloads/x86_64-15.1.0-release-win32-seh-ucrt-rt_v12-rev0/mingw64/bin/../lib/gcc/x86_64-w64-mingw32/15.1.0/../../../../x86_64-w64-mingw32/lib/../lib/libkernel32.a(libkernel32s01528.o)
 .data          0x00000001400030f0        0x0 C:/Users/lenovo/Downloads/x86_64-15.1.0-release-win32-seh-ucrt-rt_v12-rev0/mingw64/bin/../lib/gcc/x86_64-w64-mingw32/15.1.0/../../../../x86_64-w64-mingw32/lib/../lib/libkernel32.a(libkernel32s01526.o)
 .data          0x00000001400030f0        0x0 C:/Users/lenovo/Downloads/x86_64-15.1.0-release-win32-seh-ucrt-rt_v12-rev0/mingw64/bin/../lib/gcc/x86_64-w64-mingw32/15.1.0/../../../../x86_64-w64-mingw32/lib/../lib/libkernel32.a(libkernel32s01479.o)
 .data          0x00000001400030f0        0x0 C:/Users/lenovo/Downloads/x86_64-15.1.0-release-win32-seh-ucrt-rt_v12-rev0/mingw64/bin/../lib/gcc/x86_64-w64-mingw32/15.1.0/../../../../x86_64-w64-mingw32/lib/../lib/libkernel32.a(libkernel32s01443.o)
 .data          0x00000001400030f0        0x0 C:/Users/lenovo/Downloads/x86_64-15.1.0-release-win32-seh-ucrt-rt_v12-rev0/mingw64/bin/../lib/gcc/x86_64-w64-mingw32/15.1.0/../../../../x86_64-w64-mingw32/lib/../lib/libkernel32.a(libkernel32s01427.o)
 .data          0x00000001400030f0        0x0 C:/Users/lenovo/Downloads/x86_64-15.1.0-release-win32-seh-ucrt-rt_v12-rev0/mingw64/bin/../lib/gcc/x86_64-w64-mingw32/15.1.0/../../../../x86_64-w64-mingw32/lib/../lib/libkernel32.a(libkernel32s01007.o)
 .data          0x00000001400030f0        0x0 C:/Users/lenovo/Downloads/x86_64-15.1.0-release-win32-seh-ucrt-rt_v12-rev0/mingw64/bin/../lib/gcc/x86_64-w64-mingw32/15.1.0/../../../../x86_64-w64-mingw32/lib/../lib/libkernel32.a(libkernel32s00913.o)
 .data          0x00000001400030f0        0x0 C:/Users/lenovo/Downloads/x86_64-15.1.0-release-win32-seh-ucrt-rt_v12-rev0/mingw64/bin/../lib/gcc/x86_64-w64-mingw32/15.1.0/../../../../x86_64-w64-mingw32/lib/../lib/libkernel32.a(libkernel32s00643.o)
 .data          0x00000001400030f0        0x0 C:/Users/lenovo/Downloads/x86_64-15.1.0-release-win32-seh-ucrt-rt_v12-rev0/mingw64/bin/../lib/gcc/x86_64-w64-mingw32/15.1.0/../../../../x86_64-w64-mingw32/lib/../lib/libkernel32.a(libkernel32s00330.o)
 .data          0x00000001400030f0        0x0 C:/Users/lenovo/Downloads/x86_64-15.1.0-release-win32-seh-ucrt-rt_v12-rev0/mingw64/bin/../lib/gcc/x86_64-w64-mingw32/15.1.0/../../../../x86_64-w64-mingw32/lib/../lib/libkernel32.a(libkernel32s00292.o)
 .data          0x00000001400030f0        0x0 C:/Users/lenovo/Downloads/x86_64-15.1.0-release-win32-seh-ucrt-rt_v12-rev0/mingw64/bin/../lib/gcc/x86_64-w64-mingw32/15.1.0/../../../../x86_64-w64-mingw32/lib/../lib/libkernel32.a(libkernel32h.o)
 .data          0x00000001400030f0        0x0 C:/Users/lenovo/Downloads/x86_64-15.1.0-release-win32-seh-ucrt-rt_v12-rev0/mingw64/bin/../lib/gcc/x86_64-w64-mingw32/15.1.0/../../../../x86_64-w64-mingw32/lib/../lib/libkernel32.a(libkernel32t.o)
 .data          0x00000001400030f0        0x0 C:/Users/lenovo/Downloads/x86_64-15.1.0-release-win32-seh-ucrt-rt_v12-rev0/mingw64/bin/../lib/gcc/x86_64-w64-mingw32/15.1.0/crtend.o
 *(.data2)
 *(SORT_BY_NAME(.data$*))
 *(.jcr)
                0x00000001400030f0                __data_end__ = .
 *(.data_cygwin_nocopy)

sivision        0x0000000140004000      0x200
 sivision       0x0000000140004000        0x4 build/o/Static.o
                0x0000000140004000                sivisionVar

.rdata          0x0000000140005000      0x800
 *(.rdata)
 .rdata         0x0000000140005000       0x60 C:/Users/lenovo/Downloads/x86_64-15.1.0-release-win32-seh-ucrt-rt_v12-rev0/mingw64/bin/../lib/gcc/x86_64-w64-mingw32/15.1.0/../../../../x86_64-w64-mingw32/lib/../lib/libmingw32.a(lib64_libmingw32_a-tlssup.o)
                0x0000000140005000                __dyn_tls_init_callback
                0x0000000140005020                _tls_used
 .rdata         0x0000000140005060      0x140 C:/Users/lenovo/Downloads/x86_64-15.1.0-release-win32-seh-ucrt-rt_v12-rev0/mingw64/bin/../lib/gcc/x86_64-w64-mingw32/15.1.0/../../../../x86_64-w64-mingw32/lib/../lib/libmingw32.a(lib64_libmingw32_a-merr.o)
 .rdata         0x00000001400051a0      0x160 C:/Users/lenovo/Downloads/x86_64-15.1.0-release-win32-seh-ucrt-rt_v12-rev0/mingw64/bin/../lib/gcc/x86_64-w64-mingw32/15.1.0/../../../../x86_64-w64-mingw32/lib/../lib/libmingw32.a(lib64_libmingw32_a-pseudo-reloc.o)
 .rdata         0x0000000140005300       0x30 C:/Users/lenovo/Downloads/x86_64-15.1.0-release-win32-seh-ucrt-rt_v12-rev0/mingw64/bin/../lib/gcc/x86_64-w64-mingw32/15.1.0/../../../../x86_64-w64-mingw32/lib/../lib/libmingw32.a(lib64_libmingw32_a-crt_handler.o)
 .rdata         0x0000000140005330       0x20 C:/Users/lenovo/Downloads/x86_64-15.1.0-release-win32-seh-ucrt-rt_v12-rev0/mingw64/bin/../lib/gcc/x86_64-w64-mingw32/15.1.0/../../../../x86_64-w64-mingw32/lib/../lib/libmsvcrt.a(lib64_libucrt_extra_a-ucrtbase_compat.o)
 .rdata         0x0000000140005350        0x8 my_program_exe_ertr000001.o
 *(SORT_BY_NAME(.rdata$*))
 *fill*         0x0000000140005358        0x8 
 .rdata$.refptr._CRT_MT
                0x0000000140005360       0x10 C:/Users/lenovo/Downloads/x86_64-15.1.0-release-win32-seh-ucrt-rt_v12-rev0/mingw64/bin/../lib/gcc/x86_64-w64-mingw32/15.1.0/../../../../x86_64-w64-mingw32/lib/../lib/libmingw32.a(lib64_libmingw32_a-tlssup.o)
                0x0000000140005360                .refptr._CRT_MT
 .rdata$.refptr._MINGW_INSTALL_DEBUG_MATHERR
                0x0000000140005370       0x10 C:/Users/lenovo/Downloads/x86_64-15.1.0-release-win32-seh-ucrt-rt_v12-rev0/mingw64/bin/../lib/gcc/x86_64-w64-mingw32/15.1.0/../../../../x86_64-w64-mingw32/lib/../lib/crt2.o
                0x0000000140005370                .refptr._MINGW_INSTALL_DEBUG_MATHERR
 .rdata$.refptr._ZSt4cout
                0x0000000140005380       0x10 build/o/test.o
                0x0000000140005380                __fu0__ZSt4cout
                0x0000000140005380                .refptr._ZSt4cout
 .rdata$.refptr._ZSt4endlIcSt11char_traitsIcEERSt13basic_ostreamIT_T0_ES6_
                0x0000000140005390       0x10 build/o/test.o
                0x0000000140005390                .refptr._ZSt4endlIcSt11char_traitsIcEERSt13basic_ostreamIT_T0_ES6_
 .rdata$.refptr.__CTOR_LIST__
                0x00000001400053a0       0x10 C:/Users/lenovo/Downloads/x86_64-15.1.0-release-win32-seh-ucrt-rt_v12-rev0/mingw64/bin/../lib/gcc/x86_64-w64-mingw32/15.1.0/../../../../x86_64-w64-mingw32/lib/../lib/libmingw32.a(lib64_libmingw32_a-gccmain.o)
                0x00000001400053a0                .refptr.__CTOR_LIST__
 .rdata$.refptr.__ImageBase
                0x00000001400053b0       0x10 C:/Users/lenovo/Downloads/x86_64-15.1.0-release-win32-seh-ucrt-rt_v12-rev0/mingw64/bin/../lib/gcc/x86_64-w64-mingw32/15.1.0/../../../../x86_64-w64-mingw32/lib/../lib/crt2.o
                0x00000001400053b0                .refptr.__ImageBase
 .rdata$.refptr.__RUNTIME_PSEUDO_RELOC_LIST_END__
                0x00000001400053c0       0x10 C:/Users/lenovo/Downloads/x86_64-15.1.0-release-win32-seh-ucrt-rt_v12-rev0/mingw64/bin/../lib/gcc/x86_64-w64-mingw32/15.1.0/../../../../x86_64-w64-mingw32/lib/../lib/libmingw32.a(lib64_libmingw32_a-pseudo-reloc.o)
                0x00000001400053c0                .refptr.__RUNTIME_PSEUDO_RELOC_LIST_END__
 .rdata$.refptr.__RUNTIME_PSEUDO_RELOC_LIST__
                0x00000001400053d0       0x10 C:/Users/lenovo/Downloads/x86_64-15.1.0-release-win32-seh-ucrt-rt_v12-rev0/mingw64/bin/../lib/gcc/x86_64-w64-mingw32/15.1.0/../../../../x86_64-w64-mingw32/lib/../lib/libmingw32.a(lib64_libmingw32_a-pseudo-reloc.o)
                0x00000001400053d0                .refptr.__RUNTIME_PSEUDO_RELOC_LIST__
 .rdata$.refptr.__dyn_tls_init_callback
                0x00000001400053e0       0x10 C:/Users/lenovo/Downloads/x86_64-15.1.0-release-win32-seh-ucrt-rt_v12-rev0/mingw64/bin/../lib/gcc/x86_64-w64-mingw32/15.1.0/../../../../x86_64-w64-mingw32/lib/../lib/crt2.o
                0x00000001400053e0                .refptr.__dyn_tls_init_callback
 .rdata$.refptr.__imp___initenv
                0x00000001400053f0       0x10 C:/Users/lenovo/Downloads/x86_64-15.1.0-release-win32-seh-ucrt-rt_v12-rev0/mingw64/bin/../lib/gcc/x86_64-w64-mingw32/15.1.0/../../../../x86_64-w64-mingw32/lib/../lib/crt2.o
                0x00000001400053f0                .refptr.__imp___initenv
 .rdata$.refptr.__imp__exit
                0x0000000140005400       0x10 C:/Users/lenovo/Downloads/x86_64-15.1.0-release-win32-seh-ucrt-rt_v12-rev0/mingw64/bin/../lib/gcc/x86_64-w64-mingw32/15.1.0/../../../../x86_64-w64-mingw32/lib/../lib/libmingw32.a(lib64_libmingw32_a-exit_wrappers.o)
                0x0000000140005400                .refptr.__imp__exit
 .rdata$.refptr.__imp__tzset
                0x0000000140005410       0x10 C:/Users/lenovo/Downloads/x86_64-15.1.0-release-win32-seh-ucrt-rt_v12-rev0/mingw64/bin/../lib/gcc/x86_64-w64-mingw32/15.1.0/../../../../x86_64-w64-mingw32/lib/../lib/libmsvcrt.a(lib64_libucrt_extra_a-ucrtbase_compat.o)
                0x0000000140005410                .refptr.__imp__tzset
 .rdata$.refptr.__imp_exit
                0x0000000140005420       0x10 C:/Users/lenovo/Downloads/x86_64-15.1.0-release-win32-seh-ucrt-rt_v12-rev0/mingw64/bin/../lib/gcc/x86_64-w64-mingw32/15.1.0/../../../../x86_64-w64-mingw32/lib/../lib/libmingw32.a(lib64_libmingw32_a-exit_wrappers.o)
                0x0000000140005420                .refptr.__imp_exit
 .rdata$.refptr.__mingw_app_type
                0x0000000140005430       0x10 C:/Users/lenovo/Downloads/x86_64-15.1.0-release-win32-seh-ucrt-rt_v12-rev0/mingw64/bin/../lib/gcc/x86_64-w64-mingw32/15.1.0/../../../../x86_64-w64-mingw32/lib/../lib/crt2.o
                0x0000000140005430                .refptr.__mingw_app_type
 .rdata$.refptr.__mingw_initltsdrot_force
                0x0000000140005440       0x10 C:/Users/lenovo/Downloads/x86_64-15.1.0-release-win32-seh-ucrt-rt_v12-rev0/mingw64/bin/../lib/gcc/x86_64-w64-mingw32/15.1.0/../../../../x86_64-w64-mingw32/lib/../lib/crt2.o
                0x0000000140005440                .refptr.__mingw_initltsdrot_force
 .rdata$.refptr.__mingw_initltsdyn_force
                0x0000000140005450       0x10 C:/Users/lenovo/Downloads/x86_64-15.1.0-release-win32-seh-ucrt-rt_v12-rev0/mingw64/bin/../lib/gcc/x86_64-w64-mingw32/15.1.0/../../../../x86_64-w64-mingw32/lib/../lib/crt2.o
                0x0000000140005450                .refptr.__mingw_initltsdyn_force
 .rdata$.refptr.__mingw_initltssuo_force
                0x0000000140005460       0x10 C:/Users/lenovo/Downloads/x86_64-15.1.0-release-win32-seh-ucrt-rt_v12-rev0/mingw64/bin/../lib/gcc/x86_64-w64-mingw32/15.1.0/../../../../x86_64-w64-mingw32/lib/../lib/crt2.o
                0x0000000140005460                .refptr.__mingw_initltssuo_force
 .rdata$.refptr.__mingw_module_is_dll
                0x0000000140005470       0x10 C:/Users/lenovo/Downloads/x86_64-15.1.0-release-win32-seh-ucrt-rt_v12-rev0/mingw64/bin/../lib/gcc/x86_64-w64-mingw32/15.1.0/../../../../x86_64-w64-mingw32/lib/../lib/libmsvcrt.a(lib64_libucrt_extra_a-ucrtbase_compat.o)
                0x0000000140005470                .refptr.__mingw_module_is_dll
 .rdata$.refptr.__mingw_oldexcpt_handler
                0x0000000140005480       0x10 C:/Users/lenovo/Downloads/x86_64-15.1.0-release-win32-seh-ucrt-rt_v12-rev0/mingw64/bin/../lib/gcc/x86_64-w64-mingw32/15.1.0/../../../../x86_64-w64-mingw32/lib/../lib/crt2.o
                0x0000000140005480                .refptr.__mingw_oldexcpt_handler
 .rdata$.refptr.__native_startup_lock
                0x0000000140005490       0x10 C:/Users/lenovo/Downloads/x86_64-15.1.0-release-win32-seh-ucrt-rt_v12-rev0/mingw64/bin/../lib/gcc/x86_64-w64-mingw32/15.1.0/../../../../x86_64-w64-mingw32/lib/../lib/crt2.o
                0x0000000140005490                .refptr.__native_startup_lock
 .rdata$.refptr.__native_startup_state
                0x00000001400054a0       0x10 C:/Users/lenovo/Downloads/x86_64-15.1.0-release-win32-seh-ucrt-rt_v12-rev0/mingw64/bin/../lib/gcc/x86_64-w64-mingw32/15.1.0/../../../../x86_64-w64-mingw32/lib/../lib/crt2.o
                0x00000001400054a0                .refptr.__native_startup_state
 .rdata$.refptr.__xc_a
                0x00000001400054b0       0x10 C:/Users/lenovo/Downloads/x86_64-15.1.0-release-win32-seh-ucrt-rt_v12-rev0/mingw64/bin/../lib/gcc/x86_64-w64-mingw32/15.1.0/../../../../x86_64-w64-mingw32/lib/../lib/crt2.o
                0x00000001400054b0                .refptr.__xc_a
 .rdata$.refptr.__xc_z
                0x00000001400054c0       0x10 C:/Users/lenovo/Downloads/x86_64-15.1.0-release-win32-seh-ucrt-rt_v12-rev0/mingw64/bin/../lib/gcc/x86_64-w64-mingw32/15.1.0/../../../../x86_64-w64-mingw32/lib/../lib/crt2.o
                0x00000001400054c0                .refptr.__xc_z
 .rdata$.refptr.__xi_a
                0x00000001400054d0       0x10 C:/Users/lenovo/Downloads/x86_64-15.1.0-release-win32-seh-ucrt-rt_v12-rev0/mingw64/bin/../lib/gcc/x86_64-w64-mingw32/15.1.0/../../../../x86_64-w64-mingw32/lib/../lib/crt2.o
                0x00000001400054d0                .refptr.__xi_a
 .rdata$.refptr.__xi_z
                0x00000001400054e0       0x10 C:/Users/lenovo/Downloads/x86_64-15.1.0-release-win32-seh-ucrt-rt_v12-rev0/mingw64/bin/../lib/gcc/x86_64-w64-mingw32/15.1.0/../../../../x86_64-w64-mingw32/lib/../lib/crt2.o
                0x00000001400054e0                .refptr.__xi_z
 .rdata$.refptr._commode
                0x00000001400054f0       0x10 C:/Users/lenovo/Downloads/x86_64-15.1.0-release-win32-seh-ucrt-rt_v12-rev0/mingw64/bin/../lib/gcc/x86_64-w64-mingw32/15.1.0/../../../../x86_64-w64-mingw32/lib/../lib/crt2.o
                0x00000001400054f0                .refptr._commode
 .rdata$.refptr._dowildcard
                0x0000000140005500       0x10 C:/Users/lenovo/Downloads/x86_64-15.1.0-release-win32-seh-ucrt-rt_v12-rev0/mingw64/bin/../lib/gcc/x86_64-w64-mingw32/15.1.0/../../../../x86_64-w64-mingw32/lib/../lib/crt2.o
                0x0000000140005500                .refptr._dowildcard
 .rdata$.refptr._fmode
                0x0000000140005510       0x10 C:/Users/lenovo/Downloads/x86_64-15.1.0-release-win32-seh-ucrt-rt_v12-rev0/mingw64/bin/../lib/gcc/x86_64-w64-mingw32/15.1.0/../../../../x86_64-w64-mingw32/lib/../lib/crt2.o
                0x0000000140005510                .refptr._fmode
 .rdata$.refptr._gnu_exception_handler
                0x0000000140005520       0x10 C:/Users/lenovo/Downloads/x86_64-15.1.0-release-win32-seh-ucrt-rt_v12-rev0/mingw64/bin/../lib/gcc/x86_64-w64-mingw32/15.1.0/../../../../x86_64-w64-mingw32/lib/../lib/crt2.o
                0x0000000140005520                .refptr._gnu_exception_handler
 .rdata$.refptr._matherr
                0x0000000140005530       0x10 C:/Users/lenovo/Downloads/x86_64-15.1.0-release-win32-seh-ucrt-rt_v12-rev0/mingw64/bin/../lib/gcc/x86_64-w64-mingw32/15.1.0/../../../../x86_64-w64-mingw32/lib/../lib/crt2.o
                0x0000000140005530                .refptr._matherr
 .rdata$.refptr._newmode
                0x0000000140005540       0x10 C:/Users/lenovo/Downloads/x86_64-15.1.0-release-win32-seh-ucrt-rt_v12-rev0/mingw64/bin/../lib/gcc/x86_64-w64-mingw32/15.1.0/../../../../x86_64-w64-mingw32/lib/../lib/crt2.o
                0x0000000140005540                .refptr._newmode
 .rdata$zzz     0x0000000140005550       0x50 build/o/Static.o
 .rdata$zzz     0x00000001400055a0       0x50 build/o/test.o
                0x00000001400055f0                . = ALIGN (0x4)
                0x00000001400055f0                __rt_psrelocs_start = .
 *(.rdata_runtime_pseudo_reloc)
 .rdata_runtime_pseudo_reloc
                0x00000001400055f0       0x18 my_program_exe_rtr000000.o
                0x0000000140005608                __rt_psrelocs_end = .
                0x0000000140005608                . = ALIGN (0x8)
                0x0000000140005608                ___CTOR_LIST__ = .
                0x0000000140005608                __CTOR_LIST__ = .
                0x0000000140005608        0x4 LONG 0xffffffffffffffff
                0x000000014000560c        0x4 LONG 0xffffffffffffffff
 *(.ctors)
 *(.ctor)
 *(SORT_BY_NAME(.ctors.*))
 .ctors.65535   0x0000000140005610        0x8 C:/Users/lenovo/Downloads/x86_64-15.1.0-release-win32-seh-ucrt-rt_v12-rev0/mingw64/bin/../lib/gcc/x86_64-w64-mingw32/15.1.0/crtend.o
                0x0000000140005618        0x4 LONG 0x0
                0x000000014000561c        0x4 LONG 0x0
                0x0000000140005620                ___DTOR_LIST__ = .
                0x0000000140005620                __DTOR_LIST__ = .
                0x0000000140005620        0x4 LONG 0xffffffffffffffff
                0x0000000140005624        0x4 LONG 0xffffffffffffffff
 *(.dtors)
 *(.dtor)
 *(SORT_BY_NAME(.dtors.*))
                0x0000000140005628        0x4 LONG 0x0
                0x000000014000562c        0x4 LONG 0x0
                0x0000000140005630                ___crt_xc_start__ = .
 *(SORT_BY_NAME(.CRT$XC*))
 .CRT$XCA       0x0000000140005630        0x8 C:/Users/lenovo/Downloads/x86_64-15.1.0-release-win32-seh-ucrt-rt_v12-rev0/mingw64/bin/../lib/gcc/x86_64-w64-mingw32/15.1.0/../../../../x86_64-w64-mingw32/lib/../lib/libmingw32.a(lib64_libmingw32_a-cinitexe.o)
                0x0000000140005630                __xc_a
 .CRT$XCAA      0x0000000140005638        0x8 C:/Users/lenovo/Downloads/x86_64-15.1.0-release-win32-seh-ucrt-rt_v12-rev0/mingw64/bin/../lib/gcc/x86_64-w64-mingw32/15.1.0/../../../../x86_64-w64-mingw32/lib/../lib/crt2.o
                0x0000000140005638                __mingw_pcppinit
 .CRT$XCZ       0x0000000140005640        0x8 C:/Users/lenovo/Downloads/x86_64-15.1.0-release-win32-seh-ucrt-rt_v12-rev0/mingw64/bin/../lib/gcc/x86_64-w64-mingw32/15.1.0/../../../../x86_64-w64-mingw32/lib/../lib/libmingw32.a(lib64_libmingw32_a-cinitexe.o)
                0x0000000140005640                __xc_z
                0x0000000140005648                ___crt_xc_end__ = .
                0x0000000140005648                ___crt_xi_start__ = .
 *(SORT_BY_NAME(.CRT$XI*))
 .CRT$XIA       0x0000000140005648        0x8 C:/Users/lenovo/Downloads/x86_64-15.1.0-release-win32-seh-ucrt-rt_v12-rev0/mingw64/bin/../lib/gcc/x86_64-w64-mingw32/15.1.0/../../../../x86_64-w64-mingw32/lib/../lib/libmingw32.a(lib64_libmingw32_a-cinitexe.o)
                0x0000000140005648                __xi_a
 .CRT$XIAA      0x0000000140005650        0x8 C:/Users/lenovo/Downloads/x86_64-15.1.0-release-win32-seh-ucrt-rt_v12-rev0/mingw64/bin/../lib/gcc/x86_64-w64-mingw32/15.1.0/../../../../x86_64-w64-mingw32/lib/../lib/crt2.o
                0x0000000140005650                __mingw_pcinit
 .CRT$XIZ       0x0000000140005658        0x8 C:/Users/lenovo/Downloads/x86_64-15.1.0-release-win32-seh-ucrt-rt_v12-rev0/mingw64/bin/../lib/gcc/x86_64-w64-mingw32/15.1.0/../../../../x86_64-w64-mingw32/lib/../lib/libmingw32.a(lib64_libmingw32_a-cinitexe.o)
                0x0000000140005658                __xi_z
                0x0000000140005660                ___crt_xi_end__ = .
                0x0000000140005660                ___crt_xl_start__ = .
 *(SORT_BY_NAME(.CRT$XL*))
 .CRT$XLA       0x0000000140005660        0x8 C:/Users/lenovo/Downloads/x86_64-15.1.0-release-win32-seh-ucrt-rt_v12-rev0/mingw64/bin/../lib/gcc/x86_64-w64-mingw32/15.1.0/../../../../x86_64-w64-mingw32/lib/../lib/libmingw32.a(lib64_libmingw32_a-tlssup.o)
                0x0000000140005660                __xl_a
 .CRT$XLC       0x0000000140005668        0x8 C:/Users/lenovo/Downloads/x86_64-15.1.0-release-win32-seh-ucrt-rt_v12-rev0/mingw64/bin/../lib/gcc/x86_64-w64-mingw32/15.1.0/../../../../x86_64-w64-mingw32/lib/../lib/libmingw32.a(lib64_libmingw32_a-tlssup.o)
                0x0000000140005668                __xl_c
 .CRT$XLD       0x0000000140005670        0x8 C:/Users/lenovo/Downloads/x86_64-15.1.0-release-win32-seh-ucrt-rt_v12-rev0/mingw64/bin/../lib/gcc/x86_64-w64-mingw32/15.1.0/../../../../x86_64-w64-mingw32/lib/../lib/libmingw32.a(lib64_libmingw32_a-tlssup.o)
                0x0000000140005670                __xl_d
 .CRT$XLZ       0x0000000140005678        0x8 C:/Users/lenovo/Downloads/x86_64-15.1.0-release-win32-seh-ucrt-rt_v12-rev0/mingw64/bin/../lib/gcc/x86_64-w64-mingw32/15.1.0/../../../../x86_64-w64-mingw32/lib/../lib/libmingw32.a(lib64_libmingw32_a-tlssup.o)
                0x0000000140005678                __xl_z
                0x0000000140005680                ___crt_xp_start__ = .
 *(SORT_BY_NAME(.CRT$XP*))
                0x0000000140005680                ___crt_xp_end__ = .
                0x0000000140005680                ___crt_xt_start__ = .
 *(SORT_BY_NAME(.CRT$XT*))
                0x0000000140005680                ___crt_xt_end__ = .
                0x0000000140005680                ___crt_xd_start__ = .
 *(SORT_BY_NAME(.CRT$XD*))
 .CRT$XDA       0x0000000140005680        0x8 C:/Users/lenovo/Downloads/x86_64-15.1.0-release-win32-seh-ucrt-rt_v12-rev0/mingw64/bin/../lib/gcc/x86_64-w64-mingw32/15.1.0/../../../../x86_64-w64-mingw32/lib/../lib/libmingw32.a(lib64_libmingw32_a-tlssup.o)
 .CRT$XDZ       0x0000000140005688        0x8 C:/Users/lenovo/Downloads/x86_64-15.1.0-release-win32-seh-ucrt-rt_v12-rev0/mingw64/bin/../lib/gcc/x86_64-w64-mingw32/15.1.0/../../../../x86_64-w64-mingw32/lib/../lib/libmingw32.a(lib64_libmingw32_a-tlssup.o)
                0x0000000140005690                ___crt_xd_end__ = .
                0x0000000140005608                ___RUNTIME_PSEUDO_RELOC_LIST_END__ = __rt_psrelocs_end
                0x0000000140005608                __RUNTIME_PSEUDO_RELOC_LIST_END__ = __rt_psrelocs_end
                0x00000001400055f0                ___RUNTIME_PSEUDO_RELOC_LIST__ = __rt_psrelocs_start
                0x00000001400055f0                __RUNTIME_PSEUDO_RELOC_LIST__ = __rt_psrelocs_start

.eh_frame
 *(.eh_frame*)

.pdata          0x0000000140006000      0x400
 *(.pdata*)
 .pdata         0x0000000140006000       0x54 C:/Users/lenovo/Downloads/x86_64-15.1.0-release-win32-seh-ucrt-rt_v12-rev0/mingw64/bin/../lib/gcc/x86_64-w64-mingw32/15.1.0/../../../../x86_64-w64-mingw32/lib/../lib/crt2.o
 .pdata         0x0000000140006054       0x18 C:/Users/lenovo/Downloads/x86_64-15.1.0-release-win32-seh-ucrt-rt_v12-rev0/mingw64/bin/../lib/gcc/x86_64-w64-mingw32/15.1.0/crtbegin.o
 .pdata         0x000000014000606c        0xc build/o/Static.o
 .pdata         0x0000000140006078        0xc build/o/test.o
 .pdata         0x0000000140006084       0x24 C:/Users/lenovo/Downloads/x86_64-15.1.0-release-win32-seh-ucrt-rt_v12-rev0/mingw64/bin/../lib/gcc/x86_64-w64-mingw32/15.1.0/../../../../x86_64-w64-mingw32/lib/../lib/libmingw32.a(lib64_libmingw32_a-gccmain.o)
 .pdata         0x00000001400060a8        0xc C:/Users/lenovo/Downloads/x86_64-15.1.0-release-win32-seh-ucrt-rt_v12-rev0/mingw64/bin/../lib/gcc/x86_64-w64-mingw32/15.1.0/../../../../x86_64-w64-mingw32/lib/../lib/libmingw32.a(lib64_libmingw32_a-dllargv.o)
 .pdata         0x00000001400060b4       0x24 C:/Users/lenovo/Downloads/x86_64-15.1.0-release-win32-seh-ucrt-rt_v12-rev0/mingw64/bin/../lib/gcc/x86_64-w64-mingw32/15.1.0/../../../../x86_64-w64-mingw32/lib/../lib/libmingw32.a(lib64_libmingw32_a-tlssup.o)
 .pdata         0x00000001400060d8        0xc C:/Users/lenovo/Downloads/x86_64-15.1.0-release-win32-seh-ucrt-rt_v12-rev0/mingw64/bin/../lib/gcc/x86_64-w64-mingw32/15.1.0/../../../../x86_64-w64-mingw32/lib/../lib/libmingw32.a(lib64_libmingw32_a-merr.o)
 .pdata         0x00000001400060e4        0xc C:/Users/lenovo/Downloads/x86_64-15.1.0-release-win32-seh-ucrt-rt_v12-rev0/mingw64/bin/../lib/gcc/x86_64-w64-mingw32/15.1.0/../../../../x86_64-w64-mingw32/lib/../lib/libmingw32.a(lib64_libmingw32_a-CRT_fp10.o)
 .pdata         0x00000001400060f0       0x24 C:/Users/lenovo/Downloads/x86_64-15.1.0-release-win32-seh-ucrt-rt_v12-rev0/mingw64/bin/../lib/gcc/x86_64-w64-mingw32/15.1.0/../../../../x86_64-w64-mingw32/lib/../lib/libmingw32.a(lib64_libmingw32_a-pseudo-reloc.o)
 .pdata         0x0000000140006114       0x18 C:/Users/lenovo/Downloads/x86_64-15.1.0-release-win32-seh-ucrt-rt_v12-rev0/mingw64/bin/../lib/gcc/x86_64-w64-mingw32/15.1.0/../../../../x86_64-w64-mingw32/lib/../lib/libmingw32.a(lib64_libmingw32_a-usermatherr.o)
 .pdata         0x000000014000612c        0xc C:/Users/lenovo/Downloads/x86_64-15.1.0-release-win32-seh-ucrt-rt_v12-rev0/mingw64/bin/../lib/gcc/x86_64-w64-mingw32/15.1.0/../../../../x86_64-w64-mingw32/lib/../lib/libmingw32.a(lib64_libmingw32_a-crt_handler.o)
 .pdata         0x0000000140006138       0x30 C:/Users/lenovo/Downloads/x86_64-15.1.0-release-win32-seh-ucrt-rt_v12-rev0/mingw64/bin/../lib/gcc/x86_64-w64-mingw32/15.1.0/../../../../x86_64-w64-mingw32/lib/../lib/libmingw32.a(lib64_libmingw32_a-tlsthrd.o)
 .pdata         0x0000000140006168       0x18 C:/Users/lenovo/Downloads/x86_64-15.1.0-release-win32-seh-ucrt-rt_v12-rev0/mingw64/bin/../lib/gcc/x86_64-w64-mingw32/15.1.0/../../../../x86_64-w64-mingw32/lib/../lib/libmingw32.a(lib64_libmingw32_a-exit_wrappers.o)
 .pdata         0x0000000140006180       0x6c C:/Users/lenovo/Downloads/x86_64-15.1.0-release-win32-seh-ucrt-rt_v12-rev0/mingw64/bin/../lib/gcc/x86_64-w64-mingw32/15.1.0/../../../../x86_64-w64-mingw32/lib/../lib/libmingw32.a(lib64_libmingw32_a-pesect.o)
 .pdata         0x00000001400061ec        0xc C:/Users/lenovo/Downloads/x86_64-15.1.0-release-win32-seh-ucrt-rt_v12-rev0/mingw64/bin/../lib/gcc/x86_64-w64-mingw32/15.1.0/../../../../x86_64-w64-mingw32/lib/../lib/libmsvcrt.a(lib64_libucrt_extra_a-ucrt_vfprintf.o)
 .pdata         0x00000001400061f8        0xc C:/Users/lenovo/Downloads/x86_64-15.1.0-release-win32-seh-ucrt-rt_v12-rev0/mingw64/bin/../lib/gcc/x86_64-w64-mingw32/15.1.0/../../../../x86_64-w64-mingw32/lib/../lib/libmsvcrt.a(lib64_libucrt_extra_a-ucrt_fprintf.o)
 .pdata         0x0000000140006204       0x6c C:/Users/lenovo/Downloads/x86_64-15.1.0-release-win32-seh-ucrt-rt_v12-rev0/mingw64/bin/../lib/gcc/x86_64-w64-mingw32/15.1.0/../../../../x86_64-w64-mingw32/lib/../lib/libmsvcrt.a(lib64_libucrt_extra_a-ucrtbase_compat.o)
 .pdata.startup
                0x0000000140006270        0xc C:/Users/lenovo/Downloads/x86_64-15.1.0-release-win32-seh-ucrt-rt_v12-rev0/mingw64/bin/../lib/gcc/x86_64-w64-mingw32/15.1.0/crtend.o

.xdata          0x0000000140007000      0x200
 *(.xdata*)
 .xdata         0x0000000140007000       0x6c C:/Users/lenovo/Downloads/x86_64-15.1.0-release-win32-seh-ucrt-rt_v12-rev0/mingw64/bin/../lib/gcc/x86_64-w64-mingw32/15.1.0/../../../../x86_64-w64-mingw32/lib/../lib/crt2.o
 .xdata         0x000000014000706c        0x8 C:/Users/lenovo/Downloads/x86_64-15.1.0-release-win32-seh-ucrt-rt_v12-rev0/mingw64/bin/../lib/gcc/x86_64-w64-mingw32/15.1.0/crtbegin.o
 .xdata         0x0000000140007074        0x8 build/o/Static.o
 .xdata         0x000000014000707c        0xc build/o/test.o
 .xdata         0x0000000140007088       0x18 C:/Users/lenovo/Downloads/x86_64-15.1.0-release-win32-seh-ucrt-rt_v12-rev0/mingw64/bin/../lib/gcc/x86_64-w64-mingw32/15.1.0/../../../../x86_64-w64-mingw32/lib/../lib/libmingw32.a(lib64_libmingw32_a-gccmain.o)
 .xdata         0x00000001400070a0        0x4 C:/Users/lenovo/Downloads/x86_64-15.1.0-release-win32-seh-ucrt-rt_v12-rev0/mingw64/bin/../lib/gcc/x86_64-w64-mingw32/15.1.0/../../../../x86_64-w64-mingw32/lib/../lib/libmingw32.a(lib64_libmingw32_a-dllargv.o)
 .xdata         0x00000001400070a4       0x18 C:/Users/lenovo/Downloads/x86_64-15.1.0-release-win32-seh-ucrt-rt_v12-rev0/mingw64/bin/../lib/gcc/x86_64-w64-mingw32/15.1.0/../../../../x86_64-w64-mingw32/lib/../lib/libmingw32.a(lib64_libmingw32_a-tlssup.o)
 .xdata         0x00000001400070bc       0x18 C:/Users/lenovo/Downloads/x86_64-15.1.0-release-win32-seh-ucrt-rt_v12-rev0/mingw64/bin/../lib/gcc/x86_64-w64-mingw32/15.1.0/../../../../x86_64-w64-mingw32/lib/../lib/libmingw32.a(lib64_libmingw32_a-merr.o)
 .xdata         0x00000001400070d4        0x4 C:/Users/lenovo/Downloads/x86_64-15.1.0-release-win32-seh-ucrt-rt_v12-rev0/mingw64/bin/../lib/gcc/x86_64-w64-mingw32/15.1.0/../../../../x86_64-w64-mingw32/lib/../lib/libmingw32.a(lib64_libmingw32_a-CRT_fp10.o)
 .xdata         0x00000001400070d8       0x30 C:/Users/lenovo/Downloads/x86_64-15.1.0-release-win32-seh-ucrt-rt_v12-rev0/mingw64/bin/../lib/gcc/x86_64-w64-mingw32/15.1.0/../../../../x86_64-w64-mingw32/lib/../lib/libmingw32.a(lib64_libmingw32_a-pseudo-reloc.o)
 .xdata         0x0000000140007108        0xc C:/Users/lenovo/Downloads/x86_64-15.1.0-release-win32-seh-ucrt-rt_v12-rev0/mingw64/bin/../lib/gcc/x86_64-w64-mingw32/15.1.0/../../../../x86_64-w64-mingw32/lib/../lib/libmingw32.a(lib64_libmingw32_a-usermatherr.o)
 .xdata         0x0000000140007114        0x8 C:/Users/lenovo/Downloads/x86_64-15.1.0-release-win32-seh-ucrt-rt_v12-rev0/mingw64/bin/../lib/gcc/x86_64-w64-mingw32/15.1.0/../../../../x86_64-w64-mingw32/lib/../lib/libmingw32.a(lib64_libmingw32_a-crt_handler.o)
 .xdata         0x000000014000711c       0x30 C:/Users/lenovo/Downloads/x86_64-15.1.0-release-win32-seh-ucrt-rt_v12-rev0/mingw64/bin/../lib/gcc/x86_64-w64-mingw32/15.1.0/../../../../x86_64-w64-mingw32/lib/../lib/libmingw32.a(lib64_libmingw32_a-tlsthrd.o)
 .xdata         0x000000014000714c       0x10 C:/Users/lenovo/Downloads/x86_64-15.1.0-release-win32-seh-ucrt-rt_v12-rev0/mingw64/bin/../lib/gcc/x86_64-w64-mingw32/15.1.0/../../../../x86_64-w64-mingw32/lib/../lib/libmingw32.a(lib64_libmingw32_a-exit_wrappers.o)
 .xdata         0x000000014000715c       0x2c C:/Users/lenovo/Downloads/x86_64-15.1.0-release-win32-seh-ucrt-rt_v12-rev0/mingw64/bin/../lib/gcc/x86_64-w64-mingw32/15.1.0/../../../../x86_64-w64-mingw32/lib/../lib/libmingw32.a(lib64_libmingw32_a-pesect.o)
 .xdata         0x0000000140007188        0x8 C:/Users/lenovo/Downloads/x86_64-15.1.0-release-win32-seh-ucrt-rt_v12-rev0/mingw64/bin/../lib/gcc/x86_64-w64-mingw32/15.1.0/../../../../x86_64-w64-mingw32/lib/../lib/libmsvcrt.a(lib64_libucrt_extra_a-ucrt_vfprintf.o)
 .xdata         0x0000000140007190        0x8 C:/Users/lenovo/Downloads/x86_64-15.1.0-release-win32-seh-ucrt-rt_v12-rev0/mingw64/bin/../lib/gcc/x86_64-w64-mingw32/15.1.0/../../../../x86_64-w64-mingw32/lib/../lib/libmsvcrt.a(lib64_libucrt_extra_a-ucrt_fprintf.o)
 .xdata         0x0000000140007198       0x50 C:/Users/lenovo/Downloads/x86_64-15.1.0-release-win32-seh-ucrt-rt_v12-rev0/mingw64/bin/../lib/gcc/x86_64-w64-mingw32/15.1.0/../../../../x86_64-w64-mingw32/lib/../lib/libmsvcrt.a(lib64_libucrt_extra_a-ucrtbase_compat.o)
 .xdata.startup
                0x00000001400071e8        0x4 C:/Users/lenovo/Downloads/x86_64-15.1.0-release-win32-seh-ucrt-rt_v12-rev0/mingw64/bin/../lib/gcc/x86_64-w64-mingw32/15.1.0/crtend.o

.bss            0x0000000140008000      0x180
                0x0000000140008000                __bss_start__ = .
 *(.bss)
 .bss           0x0000000140008000       0x30 C:/Users/lenovo/Downloads/x86_64-15.1.0-release-win32-seh-ucrt-rt_v12-rev0/mingw64/bin/../lib/gcc/x86_64-w64-mingw32/15.1.0/../../../../x86_64-w64-mingw32/lib/../lib/crt2.o
                0x0000000140008000                __mingw_module_is_dll
 .bss           0x0000000140008030        0x0 C:/Users/lenovo/Downloads/x86_64-15.1.0-release-win32-seh-ucrt-rt_v12-rev0/mingw64/bin/../lib/gcc/x86_64-w64-mingw32/15.1.0/crtbegin.o
 .bss           0x0000000140008030        0x0 build/o/Static.o
 .bss           0x0000000140008030        0x0 build/o/test.o
 .bss           0x0000000140008030       0x10 C:/Users/lenovo/Downloads/x86_64-15.1.0-release-win32-seh-ucrt-rt_v12-rev0/mingw64/bin/../lib/gcc/x86_64-w64-mingw32/15.1.0/../../../../x86_64-w64-mingw32/lib/../lib/libmingw32.a(lib64_libmingw32_a-gccmain.o)
 .bss           0x0000000140008040       0x10 C:/Users/lenovo/Downloads/x86_64-15.1.0-release-win32-seh-ucrt-rt_v12-rev0/mingw64/bin/../lib/gcc/x86_64-w64-mingw32/15.1.0/../../../../x86_64-w64-mingw32/lib/../lib/libmingw32.a(lib64_libmingw32_a-natstart.o)
                0x0000000140008040                __native_startup_lock
                0x0000000140008048                __native_startup_state
 .bss           0x0000000140008050       0x10 C:/Users/lenovo/Downloads/x86_64-15.1.0-release-win32-seh-ucrt-rt_v12-rev0/mingw64/bin/../lib/gcc/x86_64-w64-mingw32/15.1.0/../../../../x86_64-w64-mingw32/lib/../lib/libmingw32.a(lib64_libmingw32_a-wildcard.o)
                0x0000000140008050                _dowildcard
 .bss           0x0000000140008060        0x0 C:/Users/lenovo/Downloads/x86_64-15.1.0-release-win32-seh-ucrt-rt_v12-rev0/mingw64/bin/../lib/gcc/x86_64-w64-mingw32/15.1.0/../../../../x86_64-w64-mingw32/lib/../lib/libmingw32.a(lib64_libmingw32_a-dllargv.o)
 .bss           0x0000000140008060       0x10 C:/Users/lenovo/Downloads/x86_64-15.1.0-release-win32-seh-ucrt-rt_v12-rev0/mingw64/bin/../lib/gcc/x86_64-w64-mingw32/15.1.0/../../../../x86_64-w64-mingw32/lib/../lib/libmingw32.a(lib64_libmingw32_a-_newmode.o)
                0x0000000140008060                _newmode
 .bss           0x0000000140008070       0x10 C:/Users/lenovo/Downloads/x86_64-15.1.0-release-win32-seh-ucrt-rt_v12-rev0/mingw64/bin/../lib/gcc/x86_64-w64-mingw32/15.1.0/../../../../x86_64-w64-mingw32/lib/../lib/libmingw32.a(lib64_libmingw32_a-tlssup.o)
                0x0000000140008070                __mingw_initltssuo_force
                0x0000000140008074                __mingw_initltsdyn_force
                0x0000000140008078                __mingw_initltsdrot_force
                0x000000014000807c                _tls_index
 .bss           0x0000000140008080       0x10 C:/Users/lenovo/Downloads/x86_64-15.1.0-release-win32-seh-ucrt-rt_v12-rev0/mingw64/bin/../lib/gcc/x86_64-w64-mingw32/15.1.0/../../../../x86_64-w64-mingw32/lib/../lib/libmingw32.a(lib64_libmingw32_a-xncommod.o)
                0x0000000140008080                _commode
 .bss           0x0000000140008090        0x0 C:/Users/lenovo/Downloads/x86_64-15.1.0-release-win32-seh-ucrt-rt_v12-rev0/mingw64/bin/../lib/gcc/x86_64-w64-mingw32/15.1.0/../../../../x86_64-w64-mingw32/lib/../lib/libmingw32.a(lib64_libmingw32_a-cinitexe.o)
 .bss           0x0000000140008090        0x0 C:/Users/lenovo/Downloads/x86_64-15.1.0-release-win32-seh-ucrt-rt_v12-rev0/mingw64/bin/../lib/gcc/x86_64-w64-mingw32/15.1.0/../../../../x86_64-w64-mingw32/lib/../lib/libmingw32.a(lib64_libmingw32_a-merr.o)
 .bss           0x0000000140008090        0x0 C:/Users/lenovo/Downloads/x86_64-15.1.0-release-win32-seh-ucrt-rt_v12-rev0/mingw64/bin/../lib/gcc/x86_64-w64-mingw32/15.1.0/../../../../x86_64-w64-mingw32/lib/../lib/libmingw32.a(lib64_libmingw32_a-CRT_fp10.o)
 .bss           0x0000000140008090       0x10 C:/Users/lenovo/Downloads/x86_64-15.1.0-release-win32-seh-ucrt-rt_v12-rev0/mingw64/bin/../lib/gcc/x86_64-w64-mingw32/15.1.0/../../../../x86_64-w64-mingw32/lib/../lib/libmingw32.a(lib64_libmingw32_a-mingw_helpers.o)
                0x0000000140008090                __mingw_app_type
 .bss           0x00000001400080a0       0x10 C:/Users/lenovo/Downloads/x86_64-15.1.0-release-win32-seh-ucrt-rt_v12-rev0/mingw64/bin/../lib/gcc/x86_64-w64-mingw32/15.1.0/../../../../x86_64-w64-mingw32/lib/../lib/libmingw32.a(lib64_libmingw32_a-pseudo-reloc.o)
 .bss           0x00000001400080b0       0x10 C:/Users/lenovo/Downloads/x86_64-15.1.0-release-win32-seh-ucrt-rt_v12-rev0/mingw64/bin/../lib/gcc/x86_64-w64-mingw32/15.1.0/../../../../x86_64-w64-mingw32/lib/../lib/libmingw32.a(lib64_libmingw32_a-usermatherr.o)
 .bss           0x00000001400080c0       0x10 C:/Users/lenovo/Downloads/x86_64-15.1.0-release-win32-seh-ucrt-rt_v12-rev0/mingw64/bin/../lib/gcc/x86_64-w64-mingw32/15.1.0/../../../../x86_64-w64-mingw32/lib/../lib/libmingw32.a(lib64_libmingw32_a-xtxtmode.o)
                0x00000001400080c0                _fmode
 .bss           0x00000001400080d0       0x10 C:/Users/lenovo/Downloads/x86_64-15.1.0-release-win32-seh-ucrt-rt_v12-rev0/mingw64/bin/../lib/gcc/x86_64-w64-mingw32/15.1.0/../../../../x86_64-w64-mingw32/lib/../lib/libmingw32.a(lib64_libmingw32_a-crt_handler.o)
                0x00000001400080d0                __mingw_oldexcpt_handler
 .bss           0x00000001400080e0       0x60 C:/Users/lenovo/Downloads/x86_64-15.1.0-release-win32-seh-ucrt-rt_v12-rev0/mingw64/bin/../lib/gcc/x86_64-w64-mingw32/15.1.0/../../../../x86_64-w64-mingw32/lib/../lib/libmingw32.a(lib64_libmingw32_a-tlsthrd.o)
 .bss           0x0000000140008140        0x0 C:/Users/lenovo/Downloads/x86_64-15.1.0-release-win32-seh-ucrt-rt_v12-rev0/mingw64/bin/../lib/gcc/x86_64-w64-mingw32/15.1.0/../../../../x86_64-w64-mingw32/lib/../lib/libmingw32.a(lib64_libmingw32_a-tlsmcrt.o)
 .bss           0x0000000140008140        0x0 C:/Users/lenovo/Downloads/x86_64-15.1.0-release-win32-seh-ucrt-rt_v12-rev0/mingw64/bin/../lib/gcc/x86_64-w64-mingw32/15.1.0/../../../../x86_64-w64-mingw32/lib/../lib/libmingw32.a(lib64_libmingw32_a-exit_wrappers.o)
 .bss           0x0000000140008140       0x10 C:/Users/lenovo/Downloads/x86_64-15.1.0-release-win32-seh-ucrt-rt_v12-rev0/mingw64/bin/../lib/gcc/x86_64-w64-mingw32/15.1.0/../../../../x86_64-w64-mingw32/lib/../lib/libmingw32.a(lib64_libmingw32_a-pseudo-reloc-list.o)
 .bss           0x0000000140008150        0x0 C:/Users/lenovo/Downloads/x86_64-15.1.0-release-win32-seh-ucrt-rt_v12-rev0/mingw64/bin/../lib/gcc/x86_64-w64-mingw32/15.1.0/../../../../x86_64-w64-mingw32/lib/../lib/libmingw32.a(lib64_libmingw32_a-pesect.o)
 .bss           0x0000000140008150        0x0 C:/Users/lenovo/Downloads/x86_64-15.1.0-release-win32-seh-ucrt-rt_v12-rev0/mingw64/bin/../lib/gcc/x86_64-w64-mingw32/15.1.0/libgcc.a(_chkstk_ms.o)
 .bss           0x0000000140008150       0x20 C:/Users/lenovo/Downloads/x86_64-15.1.0-release-win32-seh-ucrt-rt_v12-rev0/mingw64/bin/../lib/gcc/x86_64-w64-mingw32/15.1.0/libgcc.a(_ctors.o)
 .bss           0x0000000140008170        0x0 C:/Users/lenovo/Downloads/x86_64-15.1.0-release-win32-seh-ucrt-rt_v12-rev0/mingw64/bin/../lib/gcc/x86_64-w64-mingw32/15.1.0/../../../../x86_64-w64-mingw32/lib/../lib/libmingwex.a(lib64_libmingwex_a-mingw_matherr.o)
 .bss           0x0000000140008170        0x0 C:/Users/lenovo/Downloads/x86_64-15.1.0-release-win32-seh-ucrt-rt_v12-rev0/mingw64/bin/../lib/gcc/x86_64-w64-mingw32/15.1.0/../../../../x86_64-w64-mingw32/lib/../lib/libmsvcrt.a(lib64_libucrt_extra_a-ucrt_vfprintf.o)
 .bss           0x0000000140008170        0x0 C:/Users/lenovo/Downloads/x86_64-15.1.0-release-win32-seh-ucrt-rt_v12-rev0/mingw64/bin/../lib/gcc/x86_64-w64-mingw32/15.1.0/../../../../x86_64-w64-mingw32/lib/../lib/libmsvcrt.a(lib64_libucrt_extra_a-ucrt_fprintf.o)
 .bss           0x0000000140008170       0x10 C:/Users/lenovo/Downloads/x86_64-15.1.0-release-win32-seh-ucrt-rt_v12-rev0/mingw64/bin/../lib/gcc/x86_64-w64-mingw32/15.1.0/../../../../x86_64-w64-mingw32/lib/../lib/libmsvcrt.a(lib64_libucrt_extra_a-__initenv.o)
 .bss           0x0000000140008180        0x0 C:/Users/lenovo/Downloads/x86_64-15.1.0-release-win32-seh-ucrt-rt_v12-rev0/mingw64/bin/../lib/gcc/x86_64-w64-mingw32/15.1.0/../../../../x86_64-w64-mingw32/lib/../lib/libmsvcrt.a(lib64_libucrt_extra_a-ucrtbase_compat.o)
 .bss           0x0000000140008180        0x0 C:/Users/lenovo/Downloads/x86_64-15.1.0-release-win32-seh-ucrt-rt_v12-rev0/mingw64/bin/../lib/gcc/x86_64-w64-mingw32/15.1.0/../../../../x86_64-w64-mingw32/lib/../lib/libmsvcrt.a(libapi-ms-win-crt-time-l1-1-0s00010.o)
 .bss           0x0000000140008180        0x0 C:/Users/lenovo/Downloads/x86_64-15.1.0-release-win32-seh-ucrt-rt_v12-rev0/mingw64/bin/../lib/gcc/x86_64-w64-mingw32/15.1.0/../../../../x86_64-w64-mingw32/lib/../lib/libmsvcrt.a(libapi-ms-win-crt-time-l1-1-0s00012.o)
 .bss           0x0000000140008180        0x0 C:/Users/lenovo/Downloads/x86_64-15.1.0-release-win32-seh-ucrt-rt_v12-rev0/mingw64/bin/../lib/gcc/x86_64-w64-mingw32/15.1.0/../../../../x86_64-w64-mingw32/lib/../lib/libmsvcrt.a(libapi-ms-win-crt-time-l1-1-0s00013.o)
 .bss           0x0000000140008180        0x0 C:/Users/lenovo/Downloads/x86_64-15.1.0-release-win32-seh-ucrt-rt_v12-rev0/mingw64/bin/../lib/gcc/x86_64-w64-mingw32/15.1.0/../../../../x86_64-w64-mingw32/lib/../lib/libmsvcrt.a(libapi-ms-win-crt-time-l1-1-0s00061.o)
 .bss           0x0000000140008180        0x0 C:/Users/lenovo/Downloads/x86_64-15.1.0-release-win32-seh-ucrt-rt_v12-rev0/mingw64/bin/../lib/gcc/x86_64-w64-mingw32/15.1.0/../../../../x86_64-w64-mingw32/lib/../lib/libmsvcrt.a(libapi-ms-win-crt-time-l1-1-0h.o)
 .bss           0x0000000140008180        0x0 C:/Users/lenovo/Downloads/x86_64-15.1.0-release-win32-seh-ucrt-rt_v12-rev0/mingw64/bin/../lib/gcc/x86_64-w64-mingw32/15.1.0/../../../../x86_64-w64-mingw32/lib/../lib/libmsvcrt.a(libapi-ms-win-crt-time-l1-1-0t.o)
 .bss           0x0000000140008180        0x0 C:/Users/lenovo/Downloads/x86_64-15.1.0-release-win32-seh-ucrt-rt_v12-rev0/mingw64/bin/../lib/gcc/x86_64-w64-mingw32/15.1.0/../../../../x86_64-w64-mingw32/lib/../lib/libmsvcrt.a(libapi-ms-win-crt-string-l1-1-0s00167.o)
 .bss           0x0000000140008180        0x0 C:/Users/lenovo/Downloads/x86_64-15.1.0-release-win32-seh-ucrt-rt_v12-rev0/mingw64/bin/../lib/gcc/x86_64-w64-mingw32/15.1.0/../../../../x86_64-w64-mingw32/lib/../lib/libmsvcrt.a(libapi-ms-win-crt-string-l1-1-0s00170.o)
 .bss           0x0000000140008180        0x0 C:/Users/lenovo/Downloads/x86_64-15.1.0-release-win32-seh-ucrt-rt_v12-rev0/mingw64/bin/../lib/gcc/x86_64-w64-mingw32/15.1.0/../../../../x86_64-w64-mingw32/lib/../lib/libmsvcrt.a(libapi-ms-win-crt-string-l1-1-0h.o)
 .bss           0x0000000140008180        0x0 C:/Users/lenovo/Downloads/x86_64-15.1.0-release-win32-seh-ucrt-rt_v12-rev0/mingw64/bin/../lib/gcc/x86_64-w64-mingw32/15.1.0/../../../../x86_64-w64-mingw32/lib/../lib/libmsvcrt.a(libapi-ms-win-crt-string-l1-1-0t.o)
 .bss           0x0000000140008180        0x0 C:/Users/lenovo/Downloads/x86_64-15.1.0-release-win32-seh-ucrt-rt_v12-rev0/mingw64/bin/../lib/gcc/x86_64-w64-mingw32/15.1.0/../../../../x86_64-w64-mingw32/lib/../lib/libmsvcrt.a(libapi-ms-win-crt-stdio-l1-1-0s00000.o)
 .bss           0x0000000140008180        0x0 C:/Users/lenovo/Downloads/x86_64-15.1.0-release-win32-seh-ucrt-rt_v12-rev0/mingw64/bin/../lib/gcc/x86_64-w64-mingw32/15.1.0/../../../../x86_64-w64-mingw32/lib/../lib/libmsvcrt.a(libapi-ms-win-crt-stdio-l1-1-0s00001.o)
 .bss           0x0000000140008180        0x0 C:/Users/lenovo/Downloads/x86_64-15.1.0-release-win32-seh-ucrt-rt_v12-rev0/mingw64/bin/../lib/gcc/x86_64-w64-mingw32/15.1.0/../../../../x86_64-w64-mingw32/lib/../lib/libmsvcrt.a(libapi-ms-win-crt-stdio-l1-1-0s00002.o)
 .bss           0x0000000140008180        0x0 C:/Users/lenovo/Downloads/x86_64-15.1.0-release-win32-seh-ucrt-rt_v12-rev0/mingw64/bin/../lib/gcc/x86_64-w64-mingw32/15.1.0/../../../../x86_64-w64-mingw32/lib/../lib/libmsvcrt.a(libapi-ms-win-crt-stdio-l1-1-0s00003.o)
 .bss           0x0000000140008180        0x0 C:/Users/lenovo/Downloads/x86_64-15.1.0-release-win32-seh-ucrt-rt_v12-rev0/mingw64/bin/../lib/gcc/x86_64-w64-mingw32/15.1.0/../../../../x86_64-w64-mingw32/lib/../lib/libmsvcrt.a(libapi-ms-win-crt-stdio-l1-1-0s00007.o)
 .bss           0x0000000140008180        0x0 C:/Users/lenovo/Downloads/x86_64-15.1.0-release-win32-seh-ucrt-rt_v12-rev0/mingw64/bin/../lib/gcc/x86_64-w64-mingw32/15.1.0/../../../../x86_64-w64-mingw32/lib/../lib/libmsvcrt.a(libapi-ms-win-crt-stdio-l1-1-0s00169.o)
 .bss           0x0000000140008180        0x0 C:/Users/lenovo/Downloads/x86_64-15.1.0-release-win32-seh-ucrt-rt_v12-rev0/mingw64/bin/../lib/gcc/x86_64-w64-mingw32/15.1.0/../../../../x86_64-w64-mingw32/lib/../lib/libmsvcrt.a(libapi-ms-win-crt-stdio-l1-1-0h.o)
 .bss           0x0000000140008180        0x0 C:/Users/lenovo/Downloads/x86_64-15.1.0-release-win32-seh-ucrt-rt_v12-rev0/mingw64/bin/../lib/gcc/x86_64-w64-mingw32/15.1.0/../../../../x86_64-w64-mingw32/lib/../lib/libmsvcrt.a(libapi-ms-win-crt-stdio-l1-1-0t.o)
 .bss           0x0000000140008180        0x0 C:/Users/lenovo/Downloads/x86_64-15.1.0-release-win32-seh-ucrt-rt_v12-rev0/mingw64/bin/../lib/gcc/x86_64-w64-mingw32/15.1.0/../../../../x86_64-w64-mingw32/lib/../lib/libmsvcrt.a(libapi-ms-win-crt-runtime-l1-1-0s00004.o)
 .bss           0x0000000140008180        0x0 C:/Users/lenovo/Downloads/x86_64-15.1.0-release-win32-seh-ucrt-rt_v12-rev0/mingw64/bin/../lib/gcc/x86_64-w64-mingw32/15.1.0/../../../../x86_64-w64-mingw32/lib/../lib/libmsvcrt.a(libapi-ms-win-crt-runtime-l1-1-0s00005.o)
 .bss           0x0000000140008180        0x0 C:/Users/lenovo/Downloads/x86_64-15.1.0-release-win32-seh-ucrt-rt_v12-rev0/mingw64/bin/../lib/gcc/x86_64-w64-mingw32/15.1.0/../../../../x86_64-w64-mingw32/lib/../lib/libmsvcrt.a(libapi-ms-win-crt-runtime-l1-1-0s00006.o)
 .bss           0x0000000140008180        0x0 C:/Users/lenovo/Downloads/x86_64-15.1.0-release-win32-seh-ucrt-rt_v12-rev0/mingw64/bin/../lib/gcc/x86_64-w64-mingw32/15.1.0/../../../../x86_64-w64-mingw32/lib/../lib/libmsvcrt.a(libapi-ms-win-crt-runtime-l1-1-0s00022.o)
 .bss           0x0000000140008180        0x0 C:/Users/lenovo/Downloads/x86_64-15.1.0-release-win32-seh-ucrt-rt_v12-rev0/mingw64/bin/../lib/gcc/x86_64-w64-mingw32/15.1.0/../../../../x86_64-w64-mingw32/lib/../lib/libmsvcrt.a(libapi-ms-win-crt-runtime-l1-1-0s00024.o)
 .bss           0x0000000140008180        0x0 C:/Users/lenovo/Downloads/x86_64-15.1.0-release-win32-seh-ucrt-rt_v12-rev0/mingw64/bin/../lib/gcc/x86_64-w64-mingw32/15.1.0/../../../../x86_64-w64-mingw32/lib/../lib/libmsvcrt.a(libapi-ms-win-crt-runtime-l1-1-0s00025.o)
 .bss           0x0000000140008180        0x0 C:/Users/lenovo/Downloads/x86_64-15.1.0-release-win32-seh-ucrt-rt_v12-rev0/mingw64/bin/../lib/gcc/x86_64-w64-mingw32/15.1.0/../../../../x86_64-w64-mingw32/lib/../lib/libmsvcrt.a(libapi-ms-win-crt-runtime-l1-1-0s00029.o)
 .bss           0x0000000140008180        0x0 C:/Users/lenovo/Downloads/x86_64-15.1.0-release-win32-seh-ucrt-rt_v12-rev0/mingw64/bin/../lib/gcc/x86_64-w64-mingw32/15.1.0/../../../../x86_64-w64-mingw32/lib/../lib/libmsvcrt.a(libapi-ms-win-crt-runtime-l1-1-0s00030.o)
 .bss           0x0000000140008180        0x0 C:/Users/lenovo/Downloads/x86_64-15.1.0-release-win32-seh-ucrt-rt_v12-rev0/mingw64/bin/../lib/gcc/x86_64-w64-mingw32/15.1.0/../../../../x86_64-w64-mingw32/lib/../lib/libmsvcrt.a(libapi-ms-win-crt-runtime-l1-1-0s00036.o)
 .bss           0x0000000140008180        0x0 C:/Users/lenovo/Downloads/x86_64-15.1.0-release-win32-seh-ucrt-rt_v12-rev0/mingw64/bin/../lib/gcc/x86_64-w64-mingw32/15.1.0/../../../../x86_64-w64-mingw32/lib/../lib/libmsvcrt.a(libapi-ms-win-crt-runtime-l1-1-0s00053.o)
 .bss           0x0000000140008180        0x0 C:/Users/lenovo/Downloads/x86_64-15.1.0-release-win32-seh-ucrt-rt_v12-rev0/mingw64/bin/../lib/gcc/x86_64-w64-mingw32/15.1.0/../../../../x86_64-w64-mingw32/lib/../lib/libmsvcrt.a(libapi-ms-win-crt-runtime-l1-1-0s00055.o)
 .bss           0x0000000140008180        0x0 C:/Users/lenovo/Downloads/x86_64-15.1.0-release-win32-seh-ucrt-rt_v12-rev0/mingw64/bin/../lib/gcc/x86_64-w64-mingw32/15.1.0/../../../../x86_64-w64-mingw32/lib/../lib/libmsvcrt.a(libapi-ms-win-crt-runtime-l1-1-0s00056.o)
 .bss           0x0000000140008180        0x0 C:/Users/lenovo/Downloads/x86_64-15.1.0-release-win32-seh-ucrt-rt_v12-rev0/mingw64/bin/../lib/gcc/x86_64-w64-mingw32/15.1.0/../../../../x86_64-w64-mingw32/lib/../lib/libmsvcrt.a(libapi-ms-win-crt-runtime-l1-1-0s00068.o)
 .bss           0x0000000140008180        0x0 C:/Users/lenovo/Downloads/x86_64-15.1.0-release-win32-seh-ucrt-rt_v12-rev0/mingw64/bin/../lib/gcc/x86_64-w64-mingw32/15.1.0/../../../../x86_64-w64-mingw32/lib/../lib/libmsvcrt.a(libapi-ms-win-crt-runtime-l1-1-0s00074.o)
 .bss           0x0000000140008180        0x0 C:/Users/lenovo/Downloads/x86_64-15.1.0-release-win32-seh-ucrt-rt_v12-rev0/mingw64/bin/../lib/gcc/x86_64-w64-mingw32/15.1.0/../../../../x86_64-w64-mingw32/lib/../lib/libmsvcrt.a(libapi-ms-win-crt-runtime-l1-1-0s00087.o)
 .bss           0x0000000140008180        0x0 C:/Users/lenovo/Downloads/x86_64-15.1.0-release-win32-seh-ucrt-rt_v12-rev0/mingw64/bin/../lib/gcc/x86_64-w64-mingw32/15.1.0/../../../../x86_64-w64-mingw32/lib/../lib/libmsvcrt.a(libapi-ms-win-crt-runtime-l1-1-0s00088.o)
 .bss           0x0000000140008180        0x0 C:/Users/lenovo/Downloads/x86_64-15.1.0-release-win32-seh-ucrt-rt_v12-rev0/mingw64/bin/../lib/gcc/x86_64-w64-mingw32/15.1.0/../../../../x86_64-w64-mingw32/lib/../lib/libmsvcrt.a(libapi-ms-win-crt-runtime-l1-1-0s00102.o)
 .bss           0x0000000140008180        0x0 C:/Users/lenovo/Downloads/x86_64-15.1.0-release-win32-seh-ucrt-rt_v12-rev0/mingw64/bin/../lib/gcc/x86_64-w64-mingw32/15.1.0/../../../../x86_64-w64-mingw32/lib/../lib/libmsvcrt.a(libapi-ms-win-crt-runtime-l1-1-0h.o)
 .bss           0x0000000140008180        0x0 C:/Users/lenovo/Downloads/x86_64-15.1.0-release-win32-seh-ucrt-rt_v12-rev0/mingw64/bin/../lib/gcc/x86_64-w64-mingw32/15.1.0/../../../../x86_64-w64-mingw32/lib/../lib/libmsvcrt.a(libapi-ms-win-crt-runtime-l1-1-0t.o)
 .bss           0x0000000140008180        0x0 C:/Users/lenovo/Downloads/x86_64-15.1.0-release-win32-seh-ucrt-rt_v12-rev0/mingw64/bin/../lib/gcc/x86_64-w64-mingw32/15.1.0/../../../../x86_64-w64-mingw32/lib/../lib/libmsvcrt.a(libapi-ms-win-crt-private-l1-1-0s00015.o)
 .bss           0x0000000140008180        0x0 C:/Users/lenovo/Downloads/x86_64-15.1.0-release-win32-seh-ucrt-rt_v12-rev0/mingw64/bin/../lib/gcc/x86_64-w64-mingw32/15.1.0/../../../../x86_64-w64-mingw32/lib/../lib/libmsvcrt.a(libapi-ms-win-crt-private-l1-1-0s01143.o)
 .bss           0x0000000140008180        0x0 C:/Users/lenovo/Downloads/x86_64-15.1.0-release-win32-seh-ucrt-rt_v12-rev0/mingw64/bin/../lib/gcc/x86_64-w64-mingw32/15.1.0/../../../../x86_64-w64-mingw32/lib/../lib/libmsvcrt.a(libapi-ms-win-crt-private-l1-1-0h.o)
 .bss           0x0000000140008180        0x0 C:/Users/lenovo/Downloads/x86_64-15.1.0-release-win32-seh-ucrt-rt_v12-rev0/mingw64/bin/../lib/gcc/x86_64-w64-mingw32/15.1.0/../../../../x86_64-w64-mingw32/lib/../lib/libmsvcrt.a(libapi-ms-win-crt-private-l1-1-0t.o)
 .bss           0x0000000140008180        0x0 C:/Users/lenovo/Downloads/x86_64-15.1.0-release-win32-seh-ucrt-rt_v12-rev0/mingw64/bin/../lib/gcc/x86_64-w64-mingw32/15.1.0/../../../../x86_64-w64-mingw32/lib/../lib/libmsvcrt.a(libapi-ms-win-crt-math-l1-1-0s00009.o)
 .bss           0x0000000140008180        0x0 C:/Users/lenovo/Downloads/x86_64-15.1.0-release-win32-seh-ucrt-rt_v12-rev0/mingw64/bin/../lib/gcc/x86_64-w64-mingw32/15.1.0/../../../../x86_64-w64-mingw32/lib/../lib/libmsvcrt.a(libapi-ms-win-crt-math-l1-1-0h.o)
 .bss           0x0000000140008180        0x0 C:/Users/lenovo/Downloads/x86_64-15.1.0-release-win32-seh-ucrt-rt_v12-rev0/mingw64/bin/../lib/gcc/x86_64-w64-mingw32/15.1.0/../../../../x86_64-w64-mingw32/lib/../lib/libmsvcrt.a(libapi-ms-win-crt-math-l1-1-0t.o)
 .bss           0x0000000140008180        0x0 C:/Users/lenovo/Downloads/x86_64-15.1.0-release-win32-seh-ucrt-rt_v12-rev0/mingw64/bin/../lib/gcc/x86_64-w64-mingw32/15.1.0/../../../../x86_64-w64-mingw32/lib/../lib/libmsvcrt.a(libapi-ms-win-crt-heap-l1-1-0s00023.o)
 .bss           0x0000000140008180        0x0 C:/Users/lenovo/Downloads/x86_64-15.1.0-release-win32-seh-ucrt-rt_v12-rev0/mingw64/bin/../lib/gcc/x86_64-w64-mingw32/15.1.0/../../../../x86_64-w64-mingw32/lib/../lib/libmsvcrt.a(libapi-ms-win-crt-heap-l1-1-0s00024.o)
 .bss           0x0000000140008180        0x0 C:/Users/lenovo/Downloads/x86_64-15.1.0-release-win32-seh-ucrt-rt_v12-rev0/mingw64/bin/../lib/gcc/x86_64-w64-mingw32/15.1.0/../../../../x86_64-w64-mingw32/lib/../lib/libmsvcrt.a(libapi-ms-win-crt-heap-l1-1-0s00025.o)
 .bss           0x0000000140008180        0x0 C:/Users/lenovo/Downloads/x86_64-15.1.0-release-win32-seh-ucrt-rt_v12-rev0/mingw64/bin/../lib/gcc/x86_64-w64-mingw32/15.1.0/../../../../x86_64-w64-mingw32/lib/../lib/libmsvcrt.a(libapi-ms-win-crt-heap-l1-1-0s00026.o)
 .bss           0x0000000140008180        0x0 C:/Users/lenovo/Downloads/x86_64-15.1.0-release-win32-seh-ucrt-rt_v12-rev0/mingw64/bin/../lib/gcc/x86_64-w64-mingw32/15.1.0/../../../../x86_64-w64-mingw32/lib/../lib/libmsvcrt.a(libapi-ms-win-crt-heap-l1-1-0h.o)
 .bss           0x0000000140008180        0x0 C:/Users/lenovo/Downloads/x86_64-15.1.0-release-win32-seh-ucrt-rt_v12-rev0/mingw64/bin/../lib/gcc/x86_64-w64-mingw32/15.1.0/../../../../x86_64-w64-mingw32/lib/../lib/libmsvcrt.a(libapi-ms-win-crt-heap-l1-1-0t.o)
 .bss           0x0000000140008180        0x0 C:/Users/lenovo/Downloads/x86_64-15.1.0-release-win32-seh-ucrt-rt_v12-rev0/mingw64/bin/../lib/gcc/x86_64-w64-mingw32/15.1.0/../../../../x86_64-w64-mingw32/lib/../lib/libmsvcrt.a(libapi-ms-win-crt-environment-l1-1-0s00000.o)
 .bss           0x0000000140008180        0x0 C:/Users/lenovo/Downloads/x86_64-15.1.0-release-win32-seh-ucrt-rt_v12-rev0/mingw64/bin/../lib/gcc/x86_64-w64-mingw32/15.1.0/../../../../x86_64-w64-mingw32/lib/../lib/libmsvcrt.a(libapi-ms-win-crt-environment-l1-1-0s00001.o)
 .bss           0x0000000140008180        0x0 C:/Users/lenovo/Downloads/x86_64-15.1.0-release-win32-seh-ucrt-rt_v12-rev0/mingw64/bin/../lib/gcc/x86_64-w64-mingw32/15.1.0/../../../../x86_64-w64-mingw32/lib/../lib/libmsvcrt.a(libapi-ms-win-crt-environment-l1-1-0h.o)
 .bss           0x0000000140008180        0x0 C:/Users/lenovo/Downloads/x86_64-15.1.0-release-win32-seh-ucrt-rt_v12-rev0/mingw64/bin/../lib/gcc/x86_64-w64-mingw32/15.1.0/../../../../x86_64-w64-mingw32/lib/../lib/libmsvcrt.a(libapi-ms-win-crt-environment-l1-1-0t.o)
 .bss           0x0000000140008180        0x0 C:/Users/lenovo/Downloads/x86_64-15.1.0-release-win32-seh-ucrt-rt_v12-rev0/mingw64/bin/../lib/gcc/x86_64-w64-mingw32/15.1.0/../../../../x86_64-w64-mingw32/lib/../lib/libkernel32.a(libkernel32s01528.o)
 .bss           0x0000000140008180        0x0 C:/Users/lenovo/Downloads/x86_64-15.1.0-release-win32-seh-ucrt-rt_v12-rev0/mingw64/bin/../lib/gcc/x86_64-w64-mingw32/15.1.0/../../../../x86_64-w64-mingw32/lib/../lib/libkernel32.a(libkernel32s01526.o)
 .bss           0x0000000140008180        0x0 C:/Users/lenovo/Downloads/x86_64-15.1.0-release-win32-seh-ucrt-rt_v12-rev0/mingw64/bin/../lib/gcc/x86_64-w64-mingw32/15.1.0/../../../../x86_64-w64-mingw32/lib/../lib/libkernel32.a(libkernel32s01479.o)
 .bss           0x0000000140008180        0x0 C:/Users/lenovo/Downloads/x86_64-15.1.0-release-win32-seh-ucrt-rt_v12-rev0/mingw64/bin/../lib/gcc/x86_64-w64-mingw32/15.1.0/../../../../x86_64-w64-mingw32/lib/../lib/libkernel32.a(libkernel32s01443.o)
 .bss           0x0000000140008180        0x0 C:/Users/lenovo/Downloads/x86_64-15.1.0-release-win32-seh-ucrt-rt_v12-rev0/mingw64/bin/../lib/gcc/x86_64-w64-mingw32/15.1.0/../../../../x86_64-w64-mingw32/lib/../lib/libkernel32.a(libkernel32s01427.o)
 .bss           0x0000000140008180        0x0 C:/Users/lenovo/Downloads/x86_64-15.1.0-release-win32-seh-ucrt-rt_v12-rev0/mingw64/bin/../lib/gcc/x86_64-w64-mingw32/15.1.0/../../../../x86_64-w64-mingw32/lib/../lib/libkernel32.a(libkernel32s01007.o)
 .bss           0x0000000140008180        0x0 C:/Users/lenovo/Downloads/x86_64-15.1.0-release-win32-seh-ucrt-rt_v12-rev0/mingw64/bin/../lib/gcc/x86_64-w64-mingw32/15.1.0/../../../../x86_64-w64-mingw32/lib/../lib/libkernel32.a(libkernel32s00913.o)
 .bss           0x0000000140008180        0x0 C:/Users/lenovo/Downloads/x86_64-15.1.0-release-win32-seh-ucrt-rt_v12-rev0/mingw64/bin/../lib/gcc/x86_64-w64-mingw32/15.1.0/../../../../x86_64-w64-mingw32/lib/../lib/libkernel32.a(libkernel32s00643.o)
 .bss           0x0000000140008180        0x0 C:/Users/lenovo/Downloads/x86_64-15.1.0-release-win32-seh-ucrt-rt_v12-rev0/mingw64/bin/../lib/gcc/x86_64-w64-mingw32/15.1.0/../../../../x86_64-w64-mingw32/lib/../lib/libkernel32.a(libkernel32s00330.o)
 .bss           0x0000000140008180        0x0 C:/Users/lenovo/Downloads/x86_64-15.1.0-release-win32-seh-ucrt-rt_v12-rev0/mingw64/bin/../lib/gcc/x86_64-w64-mingw32/15.1.0/../../../../x86_64-w64-mingw32/lib/../lib/libkernel32.a(libkernel32s00292.o)
 .bss           0x0000000140008180        0x0 C:/Users/lenovo/Downloads/x86_64-15.1.0-release-win32-seh-ucrt-rt_v12-rev0/mingw64/bin/../lib/gcc/x86_64-w64-mingw32/15.1.0/../../../../x86_64-w64-mingw32/lib/../lib/libkernel32.a(libkernel32h.o)
 .bss           0x0000000140008180        0x0 C:/Users/lenovo/Downloads/x86_64-15.1.0-release-win32-seh-ucrt-rt_v12-rev0/mingw64/bin/../lib/gcc/x86_64-w64-mingw32/15.1.0/../../../../x86_64-w64-mingw32/lib/../lib/libkernel32.a(libkernel32t.o)
 .bss           0x0000000140008180        0x0 C:/Users/lenovo/Downloads/x86_64-15.1.0-release-win32-seh-ucrt-rt_v12-rev0/mingw64/bin/../lib/gcc/x86_64-w64-mingw32/15.1.0/crtend.o
 *(COMMON)
                0x0000000140008180                __bss_end__ = .

.edata
 *(.edata)

/DISCARD/
 *(.debug$S)
 *(.debug$T)
 *(.debug$F)
 *(.drectve)
 *(.note.GNU-stack)
 *(.gnu.lto_*)
 *(.gnu_object_only)

.idata          0x0000000140009000      0xc00
 SORT_BY_NAME(*)(.idata$2)
 .idata$2       0x0000000140009000       0x14 C:/Users/lenovo/Downloads/x86_64-15.1.0-release-win32-seh-ucrt-rt_v12-rev0/mingw64/bin/../lib/gcc/x86_64-w64-mingw32/15.1.0/../../../../x86_64-w64-mingw32/lib/../lib/libkernel32.a(libkernel32h.o)
                0x0000000140009000                _head_lib64_libkernel32_a
 .idata$2       0x0000000140009014       0x14 C:/Users/lenovo/Downloads/x86_64-15.1.0-release-win32-seh-ucrt-rt_v12-rev0/mingw64/bin/../lib/gcc/x86_64-w64-mingw32/15.1.0/../../../../x86_64-w64-mingw32/lib/../lib/libmsvcrt.a(libapi-ms-win-crt-environment-l1-1-0h.o)
                0x0000000140009014                _head_lib64_libapi_ms_win_crt_environment_l1_1_0_a
 .idata$2       0x0000000140009028       0x14 C:/Users/lenovo/Downloads/x86_64-15.1.0-release-win32-seh-ucrt-rt_v12-rev0/mingw64/bin/../lib/gcc/x86_64-w64-mingw32/15.1.0/../../../../x86_64-w64-mingw32/lib/../lib/libmsvcrt.a(libapi-ms-win-crt-heap-l1-1-0h.o)
                0x0000000140009028                _head_lib64_libapi_ms_win_crt_heap_l1_1_0_a
 .idata$2       0x000000014000903c       0x14 C:/Users/lenovo/Downloads/x86_64-15.1.0-release-win32-seh-ucrt-rt_v12-rev0/mingw64/bin/../lib/gcc/x86_64-w64-mingw32/15.1.0/../../../../x86_64-w64-mingw32/lib/../lib/libmsvcrt.a(libapi-ms-win-crt-math-l1-1-0h.o)
                0x000000014000903c                _head_lib64_libapi_ms_win_crt_math_l1_1_0_a
 .idata$2       0x0000000140009050       0x14 C:/Users/lenovo/Downloads/x86_64-15.1.0-release-win32-seh-ucrt-rt_v12-rev0/mingw64/bin/../lib/gcc/x86_64-w64-mingw32/15.1.0/../../../../x86_64-w64-mingw32/lib/../lib/libmsvcrt.a(libapi-ms-win-crt-private-l1-1-0h.o)
                0x0000000140009050                _head_lib64_libapi_ms_win_crt_private_l1_1_0_a
 .idata$2       0x0000000140009064       0x14 C:/Users/lenovo/Downloads/x86_64-15.1.0-release-win32-seh-ucrt-rt_v12-rev0/mingw64/bin/../lib/gcc/x86_64-w64-mingw32/15.1.0/../../../../x86_64-w64-mingw32/lib/../lib/libmsvcrt.a(libapi-ms-win-crt-runtime-l1-1-0h.o)
                0x0000000140009064                _head_lib64_libapi_ms_win_crt_runtime_l1_1_0_a
 .idata$2       0x0000000140009078       0x14 C:/Users/lenovo/Downloads/x86_64-15.1.0-release-win32-seh-ucrt-rt_v12-rev0/mingw64/bin/../lib/gcc/x86_64-w64-mingw32/15.1.0/../../../../x86_64-w64-mingw32/lib/../lib/libmsvcrt.a(libapi-ms-win-crt-stdio-l1-1-0h.o)
                0x0000000140009078                _head_lib64_libapi_ms_win_crt_stdio_l1_1_0_a
 .idata$2       0x000000014000908c       0x14 C:/Users/lenovo/Downloads/x86_64-15.1.0-release-win32-seh-ucrt-rt_v12-rev0/mingw64/bin/../lib/gcc/x86_64-w64-mingw32/15.1.0/../../../../x86_64-w64-mingw32/lib/../lib/libmsvcrt.a(libapi-ms-win-crt-string-l1-1-0h.o)
                0x000000014000908c                _head_lib64_libapi_ms_win_crt_string_l1_1_0_a
 .idata$2       0x00000001400090a0       0x14 C:/Users/lenovo/Downloads/x86_64-15.1.0-release-win32-seh-ucrt-rt_v12-rev0/mingw64/bin/../lib/gcc/x86_64-w64-mingw32/15.1.0/../../../../x86_64-w64-mingw32/lib/../lib/libmsvcrt.a(libapi-ms-win-crt-time-l1-1-0h.o)
                0x00000001400090a0                _head_lib64_libapi_ms_win_crt_time_l1_1_0_a
 .idata$2       0x00000001400090b4       0x14 C:/Users/lenovo/Downloads/x86_64-15.1.0-release-win32-seh-ucrt-rt_v12-rev0/mingw64/bin/../lib/gcc/x86_64-w64-mingw32/15.1.0/libstdc++.dll.a(libstdc___6_dll_d000000.o)
                0x00000001400090b4                _head_libstdc___6_dll
 SORT_BY_NAME(*)(.idata$3)
                0x00000001400090c8        0x4 LONG 0x0
                0x00000001400090cc        0x4 LONG 0x0
                0x00000001400090d0        0x4 LONG 0x0
                0x00000001400090d4        0x4 LONG 0x0
                0x00000001400090d8        0x4 LONG 0x0
                0x00000001400090e0                . = ALIGN (0x8)
 *fill*         0x00000001400090dc        0x4 
 SORT_BY_NAME(*)(.idata$4)
 .idata$4       0x00000001400090e0        0x0 C:/Users/lenovo/Downloads/x86_64-15.1.0-release-win32-seh-ucrt-rt_v12-rev0/mingw64/bin/../lib/gcc/x86_64-w64-mingw32/15.1.0/../../../../x86_64-w64-mingw32/lib/../lib/libkernel32.a(libkernel32h.o)
 .idata$4       0x00000001400090e0        0x8 C:/Users/lenovo/Downloads/x86_64-15.1.0-release-win32-seh-ucrt-rt_v12-rev0/mingw64/bin/../lib/gcc/x86_64-w64-mingw32/15.1.0/../../../../x86_64-w64-mingw32/lib/../lib/libkernel32.a(libkernel32s00292.o)
 .idata$4       0x00000001400090e8        0x8 C:/Users/lenovo/Downloads/x86_64-15.1.0-release-win32-seh-ucrt-rt_v12-rev0/mingw64/bin/../lib/gcc/x86_64-w64-mingw32/15.1.0/../../../../x86_64-w64-mingw32/lib/../lib/libkernel32.a(libkernel32s00330.o)
 .idata$4       0x00000001400090f0        0x8 C:/Users/lenovo/Downloads/x86_64-15.1.0-release-win32-seh-ucrt-rt_v12-rev0/mingw64/bin/../lib/gcc/x86_64-w64-mingw32/15.1.0/../../../../x86_64-w64-mingw32/lib/../lib/libkernel32.a(libkernel32s00643.o)
 .idata$4       0x00000001400090f8        0x8 C:/Users/lenovo/Downloads/x86_64-15.1.0-release-win32-seh-ucrt-rt_v12-rev0/mingw64/bin/../lib/gcc/x86_64-w64-mingw32/15.1.0/../../../../x86_64-w64-mingw32/lib/../lib/libkernel32.a(libkernel32s00913.o)
 .idata$4       0x0000000140009100        0x8 C:/Users/lenovo/Downloads/x86_64-15.1.0-release-win32-seh-ucrt-rt_v12-rev0/mingw64/bin/../lib/gcc/x86_64-w64-mingw32/15.1.0/../../../../x86_64-w64-mingw32/lib/../lib/libkernel32.a(libkernel32s01007.o)
 .idata$4       0x0000000140009108        0x8 C:/Users/lenovo/Downloads/x86_64-15.1.0-release-win32-seh-ucrt-rt_v12-rev0/mingw64/bin/../lib/gcc/x86_64-w64-mingw32/15.1.0/../../../../x86_64-w64-mingw32/lib/../lib/libkernel32.a(libkernel32s01427.o)
 .idata$4       0x0000000140009110        0x8 C:/Users/lenovo/Downloads/x86_64-15.1.0-release-win32-seh-ucrt-rt_v12-rev0/mingw64/bin/../lib/gcc/x86_64-w64-mingw32/15.1.0/../../../../x86_64-w64-mingw32/lib/../lib/libkernel32.a(libkernel32s01443.o)
 .idata$4       0x0000000140009118        0x8 C:/Users/lenovo/Downloads/x86_64-15.1.0-release-win32-seh-ucrt-rt_v12-rev0/mingw64/bin/../lib/gcc/x86_64-w64-mingw32/15.1.0/../../../../x86_64-w64-mingw32/lib/../lib/libkernel32.a(libkernel32s01479.o)
 .idata$4       0x0000000140009120        0x8 C:/Users/lenovo/Downloads/x86_64-15.1.0-release-win32-seh-ucrt-rt_v12-rev0/mingw64/bin/../lib/gcc/x86_64-w64-mingw32/15.1.0/../../../../x86_64-w64-mingw32/lib/../lib/libkernel32.a(libkernel32s01526.o)
 .idata$4       0x0000000140009128        0x8 C:/Users/lenovo/Downloads/x86_64-15.1.0-release-win32-seh-ucrt-rt_v12-rev0/mingw64/bin/../lib/gcc/x86_64-w64-mingw32/15.1.0/../../../../x86_64-w64-mingw32/lib/../lib/libkernel32.a(libkernel32s01528.o)
 .idata$4       0x0000000140009130        0x8 C:/Users/lenovo/Downloads/x86_64-15.1.0-release-win32-seh-ucrt-rt_v12-rev0/mingw64/bin/../lib/gcc/x86_64-w64-mingw32/15.1.0/../../../../x86_64-w64-mingw32/lib/../lib/libkernel32.a(libkernel32t.o)
 .idata$4       0x0000000140009138        0x0 C:/Users/lenovo/Downloads/x86_64-15.1.0-release-win32-seh-ucrt-rt_v12-rev0/mingw64/bin/../lib/gcc/x86_64-w64-mingw32/15.1.0/../../../../x86_64-w64-mingw32/lib/../lib/libmsvcrt.a(libapi-ms-win-crt-environment-l1-1-0h.o)
 .idata$4       0x0000000140009138        0x8 C:/Users/lenovo/Downloads/x86_64-15.1.0-release-win32-seh-ucrt-rt_v12-rev0/mingw64/bin/../lib/gcc/x86_64-w64-mingw32/15.1.0/../../../../x86_64-w64-mingw32/lib/../lib/libmsvcrt.a(libapi-ms-win-crt-environment-l1-1-0s00000.o)
 .idata$4       0x0000000140009140        0x8 C:/Users/lenovo/Downloads/x86_64-15.1.0-release-win32-seh-ucrt-rt_v12-rev0/mingw64/bin/../lib/gcc/x86_64-w64-mingw32/15.1.0/../../../../x86_64-w64-mingw32/lib/../lib/libmsvcrt.a(libapi-ms-win-crt-environment-l1-1-0s00001.o)
 .idata$4       0x0000000140009148        0x8 C:/Users/lenovo/Downloads/x86_64-15.1.0-release-win32-seh-ucrt-rt_v12-rev0/mingw64/bin/../lib/gcc/x86_64-w64-mingw32/15.1.0/../../../../x86_64-w64-mingw32/lib/../lib/libmsvcrt.a(libapi-ms-win-crt-environment-l1-1-0t.o)
 .idata$4       0x0000000140009150        0x0 C:/Users/lenovo/Downloads/x86_64-15.1.0-release-win32-seh-ucrt-rt_v12-rev0/mingw64/bin/../lib/gcc/x86_64-w64-mingw32/15.1.0/../../../../x86_64-w64-mingw32/lib/../lib/libmsvcrt.a(libapi-ms-win-crt-heap-l1-1-0h.o)
 .idata$4       0x0000000140009150        0x8 C:/Users/lenovo/Downloads/x86_64-15.1.0-release-win32-seh-ucrt-rt_v12-rev0/mingw64/bin/../lib/gcc/x86_64-w64-mingw32/15.1.0/../../../../x86_64-w64-mingw32/lib/../lib/libmsvcrt.a(libapi-ms-win-crt-heap-l1-1-0s00023.o)
 .idata$4       0x0000000140009158        0x8 C:/Users/lenovo/Downloads/x86_64-15.1.0-release-win32-seh-ucrt-rt_v12-rev0/mingw64/bin/../lib/gcc/x86_64-w64-mingw32/15.1.0/../../../../x86_64-w64-mingw32/lib/../lib/libmsvcrt.a(libapi-ms-win-crt-heap-l1-1-0s00024.o)
 .idata$4       0x0000000140009160        0x8 C:/Users/lenovo/Downloads/x86_64-15.1.0-release-win32-seh-ucrt-rt_v12-rev0/mingw64/bin/../lib/gcc/x86_64-w64-mingw32/15.1.0/../../../../x86_64-w64-mingw32/lib/../lib/libmsvcrt.a(libapi-ms-win-crt-heap-l1-1-0s00025.o)
 .idata$4       0x0000000140009168        0x8 C:/Users/lenovo/Downloads/x86_64-15.1.0-release-win32-seh-ucrt-rt_v12-rev0/mingw64/bin/../lib/gcc/x86_64-w64-mingw32/15.1.0/../../../../x86_64-w64-mingw32/lib/../lib/libmsvcrt.a(libapi-ms-win-crt-heap-l1-1-0s00026.o)
 .idata$4       0x0000000140009170        0x8 C:/Users/lenovo/Downloads/x86_64-15.1.0-release-win32-seh-ucrt-rt_v12-rev0/mingw64/bin/../lib/gcc/x86_64-w64-mingw32/15.1.0/../../../../x86_64-w64-mingw32/lib/../lib/libmsvcrt.a(libapi-ms-win-crt-heap-l1-1-0t.o)
 .idata$4       0x0000000140009178        0x0 C:/Users/lenovo/Downloads/x86_64-15.1.0-release-win32-seh-ucrt-rt_v12-rev0/mingw64/bin/../lib/gcc/x86_64-w64-mingw32/15.1.0/../../../../x86_64-w64-mingw32/lib/../lib/libmsvcrt.a(libapi-ms-win-crt-math-l1-1-0h.o)
 .idata$4       0x0000000140009178        0x8 C:/Users/lenovo/Downloads/x86_64-15.1.0-release-win32-seh-ucrt-rt_v12-rev0/mingw64/bin/../lib/gcc/x86_64-w64-mingw32/15.1.0/../../../../x86_64-w64-mingw32/lib/../lib/libmsvcrt.a(libapi-ms-win-crt-math-l1-1-0s00009.o)
 .idata$4       0x0000000140009180        0x8 C:/Users/lenovo/Downloads/x86_64-15.1.0-release-win32-seh-ucrt-rt_v12-rev0/mingw64/bin/../lib/gcc/x86_64-w64-mingw32/15.1.0/../../../../x86_64-w64-mingw32/lib/../lib/libmsvcrt.a(libapi-ms-win-crt-math-l1-1-0t.o)
 .idata$4       0x0000000140009188        0x0 C:/Users/lenovo/Downloads/x86_64-15.1.0-release-win32-seh-ucrt-rt_v12-rev0/mingw64/bin/../lib/gcc/x86_64-w64-mingw32/15.1.0/../../../../x86_64-w64-mingw32/lib/../lib/libmsvcrt.a(libapi-ms-win-crt-private-l1-1-0h.o)
 .idata$4       0x0000000140009188        0x8 C:/Users/lenovo/Downloads/x86_64-15.1.0-release-win32-seh-ucrt-rt_v12-rev0/mingw64/bin/../lib/gcc/x86_64-w64-mingw32/15.1.0/../../../../x86_64-w64-mingw32/lib/../lib/libmsvcrt.a(libapi-ms-win-crt-private-l1-1-0s00015.o)
 .idata$4       0x0000000140009190        0x8 C:/Users/lenovo/Downloads/x86_64-15.1.0-release-win32-seh-ucrt-rt_v12-rev0/mingw64/bin/../lib/gcc/x86_64-w64-mingw32/15.1.0/../../../../x86_64-w64-mingw32/lib/../lib/libmsvcrt.a(libapi-ms-win-crt-private-l1-1-0s01143.o)
 .idata$4       0x0000000140009198        0x8 C:/Users/lenovo/Downloads/x86_64-15.1.0-release-win32-seh-ucrt-rt_v12-rev0/mingw64/bin/../lib/gcc/x86_64-w64-mingw32/15.1.0/../../../../x86_64-w64-mingw32/lib/../lib/libmsvcrt.a(libapi-ms-win-crt-private-l1-1-0t.o)
 .idata$4       0x00000001400091a0        0x0 C:/Users/lenovo/Downloads/x86_64-15.1.0-release-win32-seh-ucrt-rt_v12-rev0/mingw64/bin/../lib/gcc/x86_64-w64-mingw32/15.1.0/../../../../x86_64-w64-mingw32/lib/../lib/libmsvcrt.a(libapi-ms-win-crt-runtime-l1-1-0h.o)
 .idata$4       0x00000001400091a0        0x8 C:/Users/lenovo/Downloads/x86_64-15.1.0-release-win32-seh-ucrt-rt_v12-rev0/mingw64/bin/../lib/gcc/x86_64-w64-mingw32/15.1.0/../../../../x86_64-w64-mingw32/lib/../lib/libmsvcrt.a(libapi-ms-win-crt-runtime-l1-1-0s00004.o)
 .idata$4       0x00000001400091a8        0x8 C:/Users/lenovo/Downloads/x86_64-15.1.0-release-win32-seh-ucrt-rt_v12-rev0/mingw64/bin/../lib/gcc/x86_64-w64-mingw32/15.1.0/../../../../x86_64-w64-mingw32/lib/../lib/libmsvcrt.a(libapi-ms-win-crt-runtime-l1-1-0s00005.o)
 .idata$4       0x00000001400091b0        0x8 C:/Users/lenovo/Downloads/x86_64-15.1.0-release-win32-seh-ucrt-rt_v12-rev0/mingw64/bin/../lib/gcc/x86_64-w64-mingw32/15.1.0/../../../../x86_64-w64-mingw32/lib/../lib/libmsvcrt.a(libapi-ms-win-crt-runtime-l1-1-0s00006.o)
 .idata$4       0x00000001400091b8        0x8 C:/Users/lenovo/Downloads/x86_64-15.1.0-release-win32-seh-ucrt-rt_v12-rev0/mingw64/bin/../lib/gcc/x86_64-w64-mingw32/15.1.0/../../../../x86_64-w64-mingw32/lib/../lib/libmsvcrt.a(libapi-ms-win-crt-runtime-l1-1-0s00022.o)
 .idata$4       0x00000001400091c0        0x8 C:/Users/lenovo/Downloads/x86_64-15.1.0-release-win32-seh-ucrt-rt_v12-rev0/mingw64/bin/../lib/gcc/x86_64-w64-mingw32/15.1.0/../../../../x86_64-w64-mingw32/lib/../lib/libmsvcrt.a(libapi-ms-win-crt-runtime-l1-1-0s00024.o)
 .idata$4       0x00000001400091c8        0x8 C:/Users/lenovo/Downloads/x86_64-15.1.0-release-win32-seh-ucrt-rt_v12-rev0/mingw64/bin/../lib/gcc/x86_64-w64-mingw32/15.1.0/../../../../x86_64-w64-mingw32/lib/../lib/libmsvcrt.a(libapi-ms-win-crt-runtime-l1-1-0s00025.o)
 .idata$4       0x00000001400091d0        0x8 C:/Users/lenovo/Downloads/x86_64-15.1.0-release-win32-seh-ucrt-rt_v12-rev0/mingw64/bin/../lib/gcc/x86_64-w64-mingw32/15.1.0/../../../../x86_64-w64-mingw32/lib/../lib/libmsvcrt.a(libapi-ms-win-crt-runtime-l1-1-0s00029.o)
 .idata$4       0x00000001400091d8        0x8 C:/Users/lenovo/Downloads/x86_64-15.1.0-release-win32-seh-ucrt-rt_v12-rev0/mingw64/bin/../lib/gcc/x86_64-w64-mingw32/15.1.0/../../../../x86_64-w64-mingw32/lib/../lib/libmsvcrt.a(libapi-ms-win-crt-runtime-l1-1-0s00030.o)
 .idata$4       0x00000001400091e0        0x8 C:/Users/lenovo/Downloads/x86_64-15.1.0-release-win32-seh-ucrt-rt_v12-rev0/mingw64/bin/../lib/gcc/x86_64-w64-mingw32/15.1.0/../../../../x86_64-w64-mingw32/lib/../lib/libmsvcrt.a(libapi-ms-win-crt-runtime-l1-1-0s00036.o)
 .idata$4       0x00000001400091e8        0x8 C:/Users/lenovo/Downloads/x86_64-15.1.0-release-win32-seh-ucrt-rt_v12-rev0/mingw64/bin/../lib/gcc/x86_64-w64-mingw32/15.1.0/../../../../x86_64-w64-mingw32/lib/../lib/libmsvcrt.a(libapi-ms-win-crt-runtime-l1-1-0s00053.o)
 .idata$4       0x00000001400091f0        0x8 C:/Users/lenovo/Downloads/x86_64-15.1.0-release-win32-seh-ucrt-rt_v12-rev0/mingw64/bin/../lib/gcc/x86_64-w64-mingw32/15.1.0/../../../../x86_64-w64-mingw32/lib/../lib/libmsvcrt.a(libapi-ms-win-crt-runtime-l1-1-0s00055.o)
 .idata$4       0x00000001400091f8        0x8 C:/Users/lenovo/Downloads/x86_64-15.1.0-release-win32-seh-ucrt-rt_v12-rev0/mingw64/bin/../lib/gcc/x86_64-w64-mingw32/15.1.0/../../../../x86_64-w64-mingw32/lib/../lib/libmsvcrt.a(libapi-ms-win-crt-runtime-l1-1-0s00056.o)
 .idata$4       0x0000000140009200        0x8 C:/Users/lenovo/Downloads/x86_64-15.1.0-release-win32-seh-ucrt-rt_v12-rev0/mingw64/bin/../lib/gcc/x86_64-w64-mingw32/15.1.0/../../../../x86_64-w64-mingw32/lib/../lib/libmsvcrt.a(libapi-ms-win-crt-runtime-l1-1-0s00068.o)
 .idata$4       0x0000000140009208        0x8 C:/Users/lenovo/Downloads/x86_64-15.1.0-release-win32-seh-ucrt-rt_v12-rev0/mingw64/bin/../lib/gcc/x86_64-w64-mingw32/15.1.0/../../../../x86_64-w64-mingw32/lib/../lib/libmsvcrt.a(libapi-ms-win-crt-runtime-l1-1-0s00074.o)
 .idata$4       0x0000000140009210        0x8 C:/Users/lenovo/Downloads/x86_64-15.1.0-release-win32-seh-ucrt-rt_v12-rev0/mingw64/bin/../lib/gcc/x86_64-w64-mingw32/15.1.0/../../../../x86_64-w64-mingw32/lib/../lib/libmsvcrt.a(libapi-ms-win-crt-runtime-l1-1-0s00087.o)
 .idata$4       0x0000000140009218        0x8 C:/Users/lenovo/Downloads/x86_64-15.1.0-release-win32-seh-ucrt-rt_v12-rev0/mingw64/bin/../lib/gcc/x86_64-w64-mingw32/15.1.0/../../../../x86_64-w64-mingw32/lib/../lib/libmsvcrt.a(libapi-ms-win-crt-runtime-l1-1-0s00088.o)
 .idata$4       0x0000000140009220        0x8 C:/Users/lenovo/Downloads/x86_64-15.1.0-release-win32-seh-ucrt-rt_v12-rev0/mingw64/bin/../lib/gcc/x86_64-w64-mingw32/15.1.0/../../../../x86_64-w64-mingw32/lib/../lib/libmsvcrt.a(libapi-ms-win-crt-runtime-l1-1-0s00102.o)
 .idata$4       0x0000000140009228        0x8 C:/Users/lenovo/Downloads/x86_64-15.1.0-release-win32-seh-ucrt-rt_v12-rev0/mingw64/bin/../lib/gcc/x86_64-w64-mingw32/15.1.0/../../../../x86_64-w64-mingw32/lib/../lib/libmsvcrt.a(libapi-ms-win-crt-runtime-l1-1-0t.o)
 .idata$4       0x0000000140009230        0x0 C:/Users/lenovo/Downloads/x86_64-15.1.0-release-win32-seh-ucrt-rt_v12-rev0/mingw64/bin/../lib/gcc/x86_64-w64-mingw32/15.1.0/../../../../x86_64-w64-mingw32/lib/../lib/libmsvcrt.a(libapi-ms-win-crt-stdio-l1-1-0h.o)
 .idata$4       0x0000000140009230        0x8 C:/Users/lenovo/Downloads/x86_64-15.1.0-release-win32-seh-ucrt-rt_v12-rev0/mingw64/bin/../lib/gcc/x86_64-w64-mingw32/15.1.0/../../../../x86_64-w64-mingw32/lib/../lib/libmsvcrt.a(libapi-ms-win-crt-stdio-l1-1-0s00000.o)
 .idata$4       0x0000000140009238        0x8 C:/Users/lenovo/Downloads/x86_64-15.1.0-release-win32-seh-ucrt-rt_v12-rev0/mingw64/bin/../lib/gcc/x86_64-w64-mingw32/15.1.0/../../../../x86_64-w64-mingw32/lib/../lib/libmsvcrt.a(libapi-ms-win-crt-stdio-l1-1-0s00001.o)
 .idata$4       0x0000000140009240        0x8 C:/Users/lenovo/Downloads/x86_64-15.1.0-release-win32-seh-ucrt-rt_v12-rev0/mingw64/bin/../lib/gcc/x86_64-w64-mingw32/15.1.0/../../../../x86_64-w64-mingw32/lib/../lib/libmsvcrt.a(libapi-ms-win-crt-stdio-l1-1-0s00002.o)
 .idata$4       0x0000000140009248        0x8 C:/Users/lenovo/Downloads/x86_64-15.1.0-release-win32-seh-ucrt-rt_v12-rev0/mingw64/bin/../lib/gcc/x86_64-w64-mingw32/15.1.0/../../../../x86_64-w64-mingw32/lib/../lib/libmsvcrt.a(libapi-ms-win-crt-stdio-l1-1-0s00003.o)
 .idata$4       0x0000000140009250        0x8 C:/Users/lenovo/Downloads/x86_64-15.1.0-release-win32-seh-ucrt-rt_v12-rev0/mingw64/bin/../lib/gcc/x86_64-w64-mingw32/15.1.0/../../../../x86_64-w64-mingw32/lib/../lib/libmsvcrt.a(libapi-ms-win-crt-stdio-l1-1-0s00007.o)
 .idata$4       0x0000000140009258        0x8 C:/Users/lenovo/Downloads/x86_64-15.1.0-release-win32-seh-ucrt-rt_v12-rev0/mingw64/bin/../lib/gcc/x86_64-w64-mingw32/15.1.0/../../../../x86_64-w64-mingw32/lib/../lib/libmsvcrt.a(libapi-ms-win-crt-stdio-l1-1-0s00169.o)
 .idata$4       0x0000000140009260        0x8 C:/Users/lenovo/Downloads/x86_64-15.1.0-release-win32-seh-ucrt-rt_v12-rev0/mingw64/bin/../lib/gcc/x86_64-w64-mingw32/15.1.0/../../../../x86_64-w64-mingw32/lib/../lib/libmsvcrt.a(libapi-ms-win-crt-stdio-l1-1-0t.o)
 .idata$4       0x0000000140009268        0x0 C:/Users/lenovo/Downloads/x86_64-15.1.0-release-win32-seh-ucrt-rt_v12-rev0/mingw64/bin/../lib/gcc/x86_64-w64-mingw32/15.1.0/../../../../x86_64-w64-mingw32/lib/../lib/libmsvcrt.a(libapi-ms-win-crt-string-l1-1-0h.o)
 .idata$4       0x0000000140009268        0x8 C:/Users/lenovo/Downloads/x86_64-15.1.0-release-win32-seh-ucrt-rt_v12-rev0/mingw64/bin/../lib/gcc/x86_64-w64-mingw32/15.1.0/../../../../x86_64-w64-mingw32/lib/../lib/libmsvcrt.a(libapi-ms-win-crt-string-l1-1-0s00167.o)
 .idata$4       0x0000000140009270        0x8 C:/Users/lenovo/Downloads/x86_64-15.1.0-release-win32-seh-ucrt-rt_v12-rev0/mingw64/bin/../lib/gcc/x86_64-w64-mingw32/15.1.0/../../../../x86_64-w64-mingw32/lib/../lib/libmsvcrt.a(libapi-ms-win-crt-string-l1-1-0s00170.o)
 .idata$4       0x0000000140009278        0x8 C:/Users/lenovo/Downloads/x86_64-15.1.0-release-win32-seh-ucrt-rt_v12-rev0/mingw64/bin/../lib/gcc/x86_64-w64-mingw32/15.1.0/../../../../x86_64-w64-mingw32/lib/../lib/libmsvcrt.a(libapi-ms-win-crt-string-l1-1-0t.o)
 .idata$4       0x0000000140009280        0x0 C:/Users/lenovo/Downloads/x86_64-15.1.0-release-win32-seh-ucrt-rt_v12-rev0/mingw64/bin/../lib/gcc/x86_64-w64-mingw32/15.1.0/../../../../x86_64-w64-mingw32/lib/../lib/libmsvcrt.a(libapi-ms-win-crt-time-l1-1-0h.o)
 .idata$4       0x0000000140009280        0x8 C:/Users/lenovo/Downloads/x86_64-15.1.0-release-win32-seh-ucrt-rt_v12-rev0/mingw64/bin/../lib/gcc/x86_64-w64-mingw32/15.1.0/../../../../x86_64-w64-mingw32/lib/../lib/libmsvcrt.a(libapi-ms-win-crt-time-l1-1-0s00010.o)
 .idata$4       0x0000000140009288        0x8 C:/Users/lenovo/Downloads/x86_64-15.1.0-release-win32-seh-ucrt-rt_v12-rev0/mingw64/bin/../lib/gcc/x86_64-w64-mingw32/15.1.0/../../../../x86_64-w64-mingw32/lib/../lib/libmsvcrt.a(libapi-ms-win-crt-time-l1-1-0s00012.o)
 .idata$4       0x0000000140009290        0x8 C:/Users/lenovo/Downloads/x86_64-15.1.0-release-win32-seh-ucrt-rt_v12-rev0/mingw64/bin/../lib/gcc/x86_64-w64-mingw32/15.1.0/../../../../x86_64-w64-mingw32/lib/../lib/libmsvcrt.a(libapi-ms-win-crt-time-l1-1-0s00013.o)
 .idata$4       0x0000000140009298        0x8 C:/Users/lenovo/Downloads/x86_64-15.1.0-release-win32-seh-ucrt-rt_v12-rev0/mingw64/bin/../lib/gcc/x86_64-w64-mingw32/15.1.0/../../../../x86_64-w64-mingw32/lib/../lib/libmsvcrt.a(libapi-ms-win-crt-time-l1-1-0s00061.o)
 .idata$4       0x00000001400092a0        0x8 C:/Users/lenovo/Downloads/x86_64-15.1.0-release-win32-seh-ucrt-rt_v12-rev0/mingw64/bin/../lib/gcc/x86_64-w64-mingw32/15.1.0/../../../../x86_64-w64-mingw32/lib/../lib/libmsvcrt.a(libapi-ms-win-crt-time-l1-1-0t.o)
 .idata$4       0x00000001400092a8        0x0 C:/Users/lenovo/Downloads/x86_64-15.1.0-release-win32-seh-ucrt-rt_v12-rev0/mingw64/bin/../lib/gcc/x86_64-w64-mingw32/15.1.0/libstdc++.dll.a(libstdc___6_dll_d000000.o)
 .idata$4       0x00000001400092a8        0x8 C:/Users/lenovo/Downloads/x86_64-15.1.0-release-win32-seh-ucrt-rt_v12-rev0/mingw64/bin/../lib/gcc/x86_64-w64-mingw32/15.1.0/libstdc++.dll.a(libstdc___6_dll_d001917.o)
 .idata$4       0x00000001400092b0        0x8 C:/Users/lenovo/Downloads/x86_64-15.1.0-release-win32-seh-ucrt-rt_v12-rev0/mingw64/bin/../lib/gcc/x86_64-w64-mingw32/15.1.0/libstdc++.dll.a(libstdc___6_dll_d001926.o)
 .idata$4       0x00000001400092b8        0x8 C:/Users/lenovo/Downloads/x86_64-15.1.0-release-win32-seh-ucrt-rt_v12-rev0/mingw64/bin/../lib/gcc/x86_64-w64-mingw32/15.1.0/libstdc++.dll.a(libstdc___6_dll_d005599.o)
 .idata$4       0x00000001400092c0        0x8 C:/Users/lenovo/Downloads/x86_64-15.1.0-release-win32-seh-ucrt-rt_v12-rev0/mingw64/bin/../lib/gcc/x86_64-w64-mingw32/15.1.0/libstdc++.dll.a(libstdc___6_dll_d005600.o)
 .idata$4       0x00000001400092c8        0x8 C:/Users/lenovo/Downloads/x86_64-15.1.0-release-win32-seh-ucrt-rt_v12-rev0/mingw64/bin/../lib/gcc/x86_64-w64-mingw32/15.1.0/libstdc++.dll.a(libstdc___6_dll_d006872.o)
                0x00000001400092d0                __IAT_start__ = .
 SORT_BY_NAME(*)(.idata$5)
 .idata$5       0x00000001400092d0        0x0 C:/Users/lenovo/Downloads/x86_64-15.1.0-release-win32-seh-ucrt-rt_v12-rev0/mingw64/bin/../lib/gcc/x86_64-w64-mingw32/15.1.0/../../../../x86_64-w64-mingw32/lib/../lib/libkernel32.a(libkernel32h.o)
 .idata$5       0x00000001400092d0        0x8 C:/Users/lenovo/Downloads/x86_64-15.1.0-release-win32-seh-ucrt-rt_v12-rev0/mingw64/bin/../lib/gcc/x86_64-w64-mingw32/15.1.0/../../../../x86_64-w64-mingw32/lib/../lib/libkernel32.a(libkernel32s00292.o)
                0x00000001400092d0                __imp_DeleteCriticalSection
 .idata$5       0x00000001400092d8        0x8 C:/Users/lenovo/Downloads/x86_64-15.1.0-release-win32-seh-ucrt-rt_v12-rev0/mingw64/bin/../lib/gcc/x86_64-w64-mingw32/15.1.0/../../../../x86_64-w64-mingw32/lib/../lib/libkernel32.a(libkernel32s00330.o)
                0x00000001400092d8                __imp_EnterCriticalSection
 .idata$5       0x00000001400092e0        0x8 C:/Users/lenovo/Downloads/x86_64-15.1.0-release-win32-seh-ucrt-rt_v12-rev0/mingw64/bin/../lib/gcc/x86_64-w64-mingw32/15.1.0/../../../../x86_64-w64-mingw32/lib/../lib/libkernel32.a(libkernel32s00643.o)
                0x00000001400092e0                __imp_GetLastError
 .idata$5       0x00000001400092e8        0x8 C:/Users/lenovo/Downloads/x86_64-15.1.0-release-win32-seh-ucrt-rt_v12-rev0/mingw64/bin/../lib/gcc/x86_64-w64-mingw32/15.1.0/../../../../x86_64-w64-mingw32/lib/../lib/libkernel32.a(libkernel32s00913.o)
                0x00000001400092e8                __imp_InitializeCriticalSection
 .idata$5       0x00000001400092f0        0x8 C:/Users/lenovo/Downloads/x86_64-15.1.0-release-win32-seh-ucrt-rt_v12-rev0/mingw64/bin/../lib/gcc/x86_64-w64-mingw32/15.1.0/../../../../x86_64-w64-mingw32/lib/../lib/libkernel32.a(libkernel32s01007.o)
                0x00000001400092f0                __imp_LeaveCriticalSection
 .idata$5       0x00000001400092f8        0x8 C:/Users/lenovo/Downloads/x86_64-15.1.0-release-win32-seh-ucrt-rt_v12-rev0/mingw64/bin/../lib/gcc/x86_64-w64-mingw32/15.1.0/../../../../x86_64-w64-mingw32/lib/../lib/libkernel32.a(libkernel32s01427.o)
                0x00000001400092f8                __imp_SetUnhandledExceptionFilter
 .idata$5       0x0000000140009300        0x8 C:/Users/lenovo/Downloads/x86_64-15.1.0-release-win32-seh-ucrt-rt_v12-rev0/mingw64/bin/../lib/gcc/x86_64-w64-mingw32/15.1.0/../../../../x86_64-w64-mingw32/lib/../lib/libkernel32.a(libkernel32s01443.o)
                0x0000000140009300                __imp_Sleep
 .idata$5       0x0000000140009308        0x8 C:/Users/lenovo/Downloads/x86_64-15.1.0-release-win32-seh-ucrt-rt_v12-rev0/mingw64/bin/../lib/gcc/x86_64-w64-mingw32/15.1.0/../../../../x86_64-w64-mingw32/lib/../lib/libkernel32.a(libkernel32s01479.o)
                0x0000000140009308                __imp_TlsGetValue
 .idata$5       0x0000000140009310        0x8 C:/Users/lenovo/Downloads/x86_64-15.1.0-release-win32-seh-ucrt-rt_v12-rev0/mingw64/bin/../lib/gcc/x86_64-w64-mingw32/15.1.0/../../../../x86_64-w64-mingw32/lib/../lib/libkernel32.a(libkernel32s01526.o)
                0x0000000140009310                __imp_VirtualProtect
 .idata$5       0x0000000140009318        0x8 C:/Users/lenovo/Downloads/x86_64-15.1.0-release-win32-seh-ucrt-rt_v12-rev0/mingw64/bin/../lib/gcc/x86_64-w64-mingw32/15.1.0/../../../../x86_64-w64-mingw32/lib/../lib/libkernel32.a(libkernel32s01528.o)
                0x0000000140009318                __imp_VirtualQuery
 .idata$5       0x0000000140009320        0x8 C:/Users/lenovo/Downloads/x86_64-15.1.0-release-win32-seh-ucrt-rt_v12-rev0/mingw64/bin/../lib/gcc/x86_64-w64-mingw32/15.1.0/../../../../x86_64-w64-mingw32/lib/../lib/libkernel32.a(libkernel32t.o)
 .idata$5       0x0000000140009328        0x0 C:/Users/lenovo/Downloads/x86_64-15.1.0-release-win32-seh-ucrt-rt_v12-rev0/mingw64/bin/../lib/gcc/x86_64-w64-mingw32/15.1.0/../../../../x86_64-w64-mingw32/lib/../lib/libmsvcrt.a(libapi-ms-win-crt-environment-l1-1-0h.o)
 .idata$5       0x0000000140009328        0x8 C:/Users/lenovo/Downloads/x86_64-15.1.0-release-win32-seh-ucrt-rt_v12-rev0/mingw64/bin/../lib/gcc/x86_64-w64-mingw32/15.1.0/../../../../x86_64-w64-mingw32/lib/../lib/libmsvcrt.a(libapi-ms-win-crt-environment-l1-1-0s00000.o)
                0x0000000140009328                __imp___p__environ
 .idata$5       0x0000000140009330        0x8 C:/Users/lenovo/Downloads/x86_64-15.1.0-release-win32-seh-ucrt-rt_v12-rev0/mingw64/bin/../lib/gcc/x86_64-w64-mingw32/15.1.0/../../../../x86_64-w64-mingw32/lib/../lib/libmsvcrt.a(libapi-ms-win-crt-environment-l1-1-0s00001.o)
                0x0000000140009330                __imp___p__wenviron
 .idata$5       0x0000000140009338        0x8 C:/Users/lenovo/Downloads/x86_64-15.1.0-release-win32-seh-ucrt-rt_v12-rev0/mingw64/bin/../lib/gcc/x86_64-w64-mingw32/15.1.0/../../../../x86_64-w64-mingw32/lib/../lib/libmsvcrt.a(libapi-ms-win-crt-environment-l1-1-0t.o)
 .idata$5       0x0000000140009340        0x0 C:/Users/lenovo/Downloads/x86_64-15.1.0-release-win32-seh-ucrt-rt_v12-rev0/mingw64/bin/../lib/gcc/x86_64-w64-mingw32/15.1.0/../../../../x86_64-w64-mingw32/lib/../lib/libmsvcrt.a(libapi-ms-win-crt-heap-l1-1-0h.o)
 .idata$5       0x0000000140009340        0x8 C:/Users/lenovo/Downloads/x86_64-15.1.0-release-win32-seh-ucrt-rt_v12-rev0/mingw64/bin/../lib/gcc/x86_64-w64-mingw32/15.1.0/../../../../x86_64-w64-mingw32/lib/../lib/libmsvcrt.a(libapi-ms-win-crt-heap-l1-1-0s00023.o)
                0x0000000140009340                __imp__set_new_mode
 .idata$5       0x0000000140009348        0x8 C:/Users/lenovo/Downloads/x86_64-15.1.0-release-win32-seh-ucrt-rt_v12-rev0/mingw64/bin/../lib/gcc/x86_64-w64-mingw32/15.1.0/../../../../x86_64-w64-mingw32/lib/../lib/libmsvcrt.a(libapi-ms-win-crt-heap-l1-1-0s00024.o)
                0x0000000140009348                __imp_calloc
 .idata$5       0x0000000140009350        0x8 C:/Users/lenovo/Downloads/x86_64-15.1.0-release-win32-seh-ucrt-rt_v12-rev0/mingw64/bin/../lib/gcc/x86_64-w64-mingw32/15.1.0/../../../../x86_64-w64-mingw32/lib/../lib/libmsvcrt.a(libapi-ms-win-crt-heap-l1-1-0s00025.o)
                0x0000000140009350                __imp_free
 .idata$5       0x0000000140009358        0x8 C:/Users/lenovo/Downloads/x86_64-15.1.0-release-win32-seh-ucrt-rt_v12-rev0/mingw64/bin/../lib/gcc/x86_64-w64-mingw32/15.1.0/../../../../x86_64-w64-mingw32/lib/../lib/libmsvcrt.a(libapi-ms-win-crt-heap-l1-1-0s00026.o)
                0x0000000140009358                __imp_malloc
 .idata$5       0x0000000140009360        0x8 C:/Users/lenovo/Downloads/x86_64-15.1.0-release-win32-seh-ucrt-rt_v12-rev0/mingw64/bin/../lib/gcc/x86_64-w64-mingw32/15.1.0/../../../../x86_64-w64-mingw32/lib/../lib/libmsvcrt.a(libapi-ms-win-crt-heap-l1-1-0t.o)
 .idata$5       0x0000000140009368        0x0 C:/Users/lenovo/Downloads/x86_64-15.1.0-release-win32-seh-ucrt-rt_v12-rev0/mingw64/bin/../lib/gcc/x86_64-w64-mingw32/15.1.0/../../../../x86_64-w64-mingw32/lib/../lib/libmsvcrt.a(libapi-ms-win-crt-math-l1-1-0h.o)
 .idata$5       0x0000000140009368        0x8 C:/Users/lenovo/Downloads/x86_64-15.1.0-release-win32-seh-ucrt-rt_v12-rev0/mingw64/bin/../lib/gcc/x86_64-w64-mingw32/15.1.0/../../../../x86_64-w64-mingw32/lib/../lib/libmsvcrt.a(libapi-ms-win-crt-math-l1-1-0s00009.o)
                0x0000000140009368                __imp___setusermatherr
 .idata$5       0x0000000140009370        0x8 C:/Users/lenovo/Downloads/x86_64-15.1.0-release-win32-seh-ucrt-rt_v12-rev0/mingw64/bin/../lib/gcc/x86_64-w64-mingw32/15.1.0/../../../../x86_64-w64-mingw32/lib/../lib/libmsvcrt.a(libapi-ms-win-crt-math-l1-1-0t.o)
 .idata$5       0x0000000140009378        0x0 C:/Users/lenovo/Downloads/x86_64-15.1.0-release-win32-seh-ucrt-rt_v12-rev0/mingw64/bin/../lib/gcc/x86_64-w64-mingw32/15.1.0/../../../../x86_64-w64-mingw32/lib/../lib/libmsvcrt.a(libapi-ms-win-crt-private-l1-1-0h.o)
 .idata$5       0x0000000140009378        0x8 C:/Users/lenovo/Downloads/x86_64-15.1.0-release-win32-seh-ucrt-rt_v12-rev0/mingw64/bin/../lib/gcc/x86_64-w64-mingw32/15.1.0/../../../../x86_64-w64-mingw32/lib/../lib/libmsvcrt.a(libapi-ms-win-crt-private-l1-1-0s00015.o)
                0x0000000140009378                __imp___C_specific_handler
 .idata$5       0x0000000140009380        0x8 C:/Users/lenovo/Downloads/x86_64-15.1.0-release-win32-seh-ucrt-rt_v12-rev0/mingw64/bin/../lib/gcc/x86_64-w64-mingw32/15.1.0/../../../../x86_64-w64-mingw32/lib/../lib/libmsvcrt.a(libapi-ms-win-crt-private-l1-1-0s01143.o)
                0x0000000140009380                __imp_memcpy
 .idata$5       0x0000000140009388        0x8 C:/Users/lenovo/Downloads/x86_64-15.1.0-release-win32-seh-ucrt-rt_v12-rev0/mingw64/bin/../lib/gcc/x86_64-w64-mingw32/15.1.0/../../../../x86_64-w64-mingw32/lib/../lib/libmsvcrt.a(libapi-ms-win-crt-private-l1-1-0t.o)
 .idata$5       0x0000000140009390        0x0 C:/Users/lenovo/Downloads/x86_64-15.1.0-release-win32-seh-ucrt-rt_v12-rev0/mingw64/bin/../lib/gcc/x86_64-w64-mingw32/15.1.0/../../../../x86_64-w64-mingw32/lib/../lib/libmsvcrt.a(libapi-ms-win-crt-runtime-l1-1-0h.o)
 .idata$5       0x0000000140009390        0x8 C:/Users/lenovo/Downloads/x86_64-15.1.0-release-win32-seh-ucrt-rt_v12-rev0/mingw64/bin/../lib/gcc/x86_64-w64-mingw32/15.1.0/../../../../x86_64-w64-mingw32/lib/../lib/libmsvcrt.a(libapi-ms-win-crt-runtime-l1-1-0s00004.o)
                0x0000000140009390                __imp___p___argc
 .idata$5       0x0000000140009398        0x8 C:/Users/lenovo/Downloads/x86_64-15.1.0-release-win32-seh-ucrt-rt_v12-rev0/mingw64/bin/../lib/gcc/x86_64-w64-mingw32/15.1.0/../../../../x86_64-w64-mingw32/lib/../lib/libmsvcrt.a(libapi-ms-win-crt-runtime-l1-1-0s00005.o)
                0x0000000140009398                __imp___p___argv
 .idata$5       0x00000001400093a0        0x8 C:/Users/lenovo/Downloads/x86_64-15.1.0-release-win32-seh-ucrt-rt_v12-rev0/mingw64/bin/../lib/gcc/x86_64-w64-mingw32/15.1.0/../../../../x86_64-w64-mingw32/lib/../lib/libmsvcrt.a(libapi-ms-win-crt-runtime-l1-1-0s00006.o)
                0x00000001400093a0                __imp___p___wargv
 .idata$5       0x00000001400093a8        0x8 C:/Users/lenovo/Downloads/x86_64-15.1.0-release-win32-seh-ucrt-rt_v12-rev0/mingw64/bin/../lib/gcc/x86_64-w64-mingw32/15.1.0/../../../../x86_64-w64-mingw32/lib/../lib/libmsvcrt.a(libapi-ms-win-crt-runtime-l1-1-0s00022.o)
                0x00000001400093a8                __imp__cexit
 .idata$5       0x00000001400093b0        0x8 C:/Users/lenovo/Downloads/x86_64-15.1.0-release-win32-seh-ucrt-rt_v12-rev0/mingw64/bin/../lib/gcc/x86_64-w64-mingw32/15.1.0/../../../../x86_64-w64-mingw32/lib/../lib/libmsvcrt.a(libapi-ms-win-crt-runtime-l1-1-0s00024.o)
                0x00000001400093b0                __imp__configure_narrow_argv
 .idata$5       0x00000001400093b8        0x8 C:/Users/lenovo/Downloads/x86_64-15.1.0-release-win32-seh-ucrt-rt_v12-rev0/mingw64/bin/../lib/gcc/x86_64-w64-mingw32/15.1.0/../../../../x86_64-w64-mingw32/lib/../lib/libmsvcrt.a(libapi-ms-win-crt-runtime-l1-1-0s00025.o)
                0x00000001400093b8                __imp__configure_wide_argv
 .idata$5       0x00000001400093c0        0x8 C:/Users/lenovo/Downloads/x86_64-15.1.0-release-win32-seh-ucrt-rt_v12-rev0/mingw64/bin/../lib/gcc/x86_64-w64-mingw32/15.1.0/../../../../x86_64-w64-mingw32/lib/../lib/libmsvcrt.a(libapi-ms-win-crt-runtime-l1-1-0s00029.o)
                0x00000001400093c0                __imp__crt_at_quick_exit
 .idata$5       0x00000001400093c8        0x8 C:/Users/lenovo/Downloads/x86_64-15.1.0-release-win32-seh-ucrt-rt_v12-rev0/mingw64/bin/../lib/gcc/x86_64-w64-mingw32/15.1.0/../../../../x86_64-w64-mingw32/lib/../lib/libmsvcrt.a(libapi-ms-win-crt-runtime-l1-1-0s00030.o)
                0x00000001400093c8                __imp__crt_atexit
 .idata$5       0x00000001400093d0        0x8 C:/Users/lenovo/Downloads/x86_64-15.1.0-release-win32-seh-ucrt-rt_v12-rev0/mingw64/bin/../lib/gcc/x86_64-w64-mingw32/15.1.0/../../../../x86_64-w64-mingw32/lib/../lib/libmsvcrt.a(libapi-ms-win-crt-runtime-l1-1-0s00036.o)
                0x00000001400093d0                __imp__exit
 .idata$5       0x00000001400093d8        0x8 C:/Users/lenovo/Downloads/x86_64-15.1.0-release-win32-seh-ucrt-rt_v12-rev0/mingw64/bin/../lib/gcc/x86_64-w64-mingw32/15.1.0/../../../../x86_64-w64-mingw32/lib/../lib/libmsvcrt.a(libapi-ms-win-crt-runtime-l1-1-0s00053.o)
                0x00000001400093d8                __imp__initialize_narrow_environment
 .idata$5       0x00000001400093e0        0x8 C:/Users/lenovo/Downloads/x86_64-15.1.0-release-win32-seh-ucrt-rt_v12-rev0/mingw64/bin/../lib/gcc/x86_64-w64-mingw32/15.1.0/../../../../x86_64-w64-mingw32/lib/../lib/libmsvcrt.a(libapi-ms-win-crt-runtime-l1-1-0s00055.o)
                0x00000001400093e0                __imp__initialize_wide_environment
 .idata$5       0x00000001400093e8        0x8 C:/Users/lenovo/Downloads/x86_64-15.1.0-release-win32-seh-ucrt-rt_v12-rev0/mingw64/bin/../lib/gcc/x86_64-w64-mingw32/15.1.0/../../../../x86_64-w64-mingw32/lib/../lib/libmsvcrt.a(libapi-ms-win-crt-runtime-l1-1-0s00056.o)
                0x00000001400093e8                __imp__initterm
 .idata$5       0x00000001400093f0        0x8 C:/Users/lenovo/Downloads/x86_64-15.1.0-release-win32-seh-ucrt-rt_v12-rev0/mingw64/bin/../lib/gcc/x86_64-w64-mingw32/15.1.0/../../../../x86_64-w64-mingw32/lib/../lib/libmsvcrt.a(libapi-ms-win-crt-runtime-l1-1-0s00068.o)
                0x00000001400093f0                __imp___set_app_type
 .idata$5       0x00000001400093f8        0x8 C:/Users/lenovo/Downloads/x86_64-15.1.0-release-win32-seh-ucrt-rt_v12-rev0/mingw64/bin/../lib/gcc/x86_64-w64-mingw32/15.1.0/../../../../x86_64-w64-mingw32/lib/../lib/libmsvcrt.a(libapi-ms-win-crt-runtime-l1-1-0s00074.o)
                0x00000001400093f8                __imp__set_invalid_parameter_handler
 .idata$5       0x0000000140009400        0x8 C:/Users/lenovo/Downloads/x86_64-15.1.0-release-win32-seh-ucrt-rt_v12-rev0/mingw64/bin/../lib/gcc/x86_64-w64-mingw32/15.1.0/../../../../x86_64-w64-mingw32/lib/../lib/libmsvcrt.a(libapi-ms-win-crt-runtime-l1-1-0s00087.o)
                0x0000000140009400                __imp_abort
 .idata$5       0x0000000140009408        0x8 C:/Users/lenovo/Downloads/x86_64-15.1.0-release-win32-seh-ucrt-rt_v12-rev0/mingw64/bin/../lib/gcc/x86_64-w64-mingw32/15.1.0/../../../../x86_64-w64-mingw32/lib/../lib/libmsvcrt.a(libapi-ms-win-crt-runtime-l1-1-0s00088.o)
                0x0000000140009408                __imp_exit
 .idata$5       0x0000000140009410        0x8 C:/Users/lenovo/Downloads/x86_64-15.1.0-release-win32-seh-ucrt-rt_v12-rev0/mingw64/bin/../lib/gcc/x86_64-w64-mingw32/15.1.0/../../../../x86_64-w64-mingw32/lib/../lib/libmsvcrt.a(libapi-ms-win-crt-runtime-l1-1-0s00102.o)
                0x0000000140009410                __imp_signal
 .idata$5       0x0000000140009418        0x8 C:/Users/lenovo/Downloads/x86_64-15.1.0-release-win32-seh-ucrt-rt_v12-rev0/mingw64/bin/../lib/gcc/x86_64-w64-mingw32/15.1.0/../../../../x86_64-w64-mingw32/lib/../lib/libmsvcrt.a(libapi-ms-win-crt-runtime-l1-1-0t.o)
 .idata$5       0x0000000140009420        0x0 C:/Users/lenovo/Downloads/x86_64-15.1.0-release-win32-seh-ucrt-rt_v12-rev0/mingw64/bin/../lib/gcc/x86_64-w64-mingw32/15.1.0/../../../../x86_64-w64-mingw32/lib/../lib/libmsvcrt.a(libapi-ms-win-crt-stdio-l1-1-0h.o)
 .idata$5       0x0000000140009420        0x8 C:/Users/lenovo/Downloads/x86_64-15.1.0-release-win32-seh-ucrt-rt_v12-rev0/mingw64/bin/../lib/gcc/x86_64-w64-mingw32/15.1.0/../../../../x86_64-w64-mingw32/lib/../lib/libmsvcrt.a(libapi-ms-win-crt-stdio-l1-1-0s00000.o)
                0x0000000140009420                __imp___acrt_iob_func
 .idata$5       0x0000000140009428        0x8 C:/Users/lenovo/Downloads/x86_64-15.1.0-release-win32-seh-ucrt-rt_v12-rev0/mingw64/bin/../lib/gcc/x86_64-w64-mingw32/15.1.0/../../../../x86_64-w64-mingw32/lib/../lib/libmsvcrt.a(libapi-ms-win-crt-stdio-l1-1-0s00001.o)
                0x0000000140009428                __imp___p__commode
 .idata$5       0x0000000140009430        0x8 C:/Users/lenovo/Downloads/x86_64-15.1.0-release-win32-seh-ucrt-rt_v12-rev0/mingw64/bin/../lib/gcc/x86_64-w64-mingw32/15.1.0/../../../../x86_64-w64-mingw32/lib/../lib/libmsvcrt.a(libapi-ms-win-crt-stdio-l1-1-0s00002.o)
                0x0000000140009430                __imp___p__fmode
 .idata$5       0x0000000140009438        0x8 C:/Users/lenovo/Downloads/x86_64-15.1.0-release-win32-seh-ucrt-rt_v12-rev0/mingw64/bin/../lib/gcc/x86_64-w64-mingw32/15.1.0/../../../../x86_64-w64-mingw32/lib/../lib/libmsvcrt.a(libapi-ms-win-crt-stdio-l1-1-0s00003.o)
                0x0000000140009438                __imp___stdio_common_vfprintf
 .idata$5       0x0000000140009440        0x8 C:/Users/lenovo/Downloads/x86_64-15.1.0-release-win32-seh-ucrt-rt_v12-rev0/mingw64/bin/../lib/gcc/x86_64-w64-mingw32/15.1.0/../../../../x86_64-w64-mingw32/lib/../lib/libmsvcrt.a(libapi-ms-win-crt-stdio-l1-1-0s00007.o)
                0x0000000140009440                __imp___stdio_common_vfwprintf
 .idata$5       0x0000000140009448        0x8 C:/Users/lenovo/Downloads/x86_64-15.1.0-release-win32-seh-ucrt-rt_v12-rev0/mingw64/bin/../lib/gcc/x86_64-w64-mingw32/15.1.0/../../../../x86_64-w64-mingw32/lib/../lib/libmsvcrt.a(libapi-ms-win-crt-stdio-l1-1-0s00169.o)
                0x0000000140009448                __imp_fwrite
 .idata$5       0x0000000140009450        0x8 C:/Users/lenovo/Downloads/x86_64-15.1.0-release-win32-seh-ucrt-rt_v12-rev0/mingw64/bin/../lib/gcc/x86_64-w64-mingw32/15.1.0/../../../../x86_64-w64-mingw32/lib/../lib/libmsvcrt.a(libapi-ms-win-crt-stdio-l1-1-0t.o)
 .idata$5       0x0000000140009458        0x0 C:/Users/lenovo/Downloads/x86_64-15.1.0-release-win32-seh-ucrt-rt_v12-rev0/mingw64/bin/../lib/gcc/x86_64-w64-mingw32/15.1.0/../../../../x86_64-w64-mingw32/lib/../lib/libmsvcrt.a(libapi-ms-win-crt-string-l1-1-0h.o)
 .idata$5       0x0000000140009458        0x8 C:/Users/lenovo/Downloads/x86_64-15.1.0-release-win32-seh-ucrt-rt_v12-rev0/mingw64/bin/../lib/gcc/x86_64-w64-mingw32/15.1.0/../../../../x86_64-w64-mingw32/lib/../lib/libmsvcrt.a(libapi-ms-win-crt-string-l1-1-0s00167.o)
                0x0000000140009458                __imp_strlen
 .idata$5       0x0000000140009460        0x8 C:/Users/lenovo/Downloads/x86_64-15.1.0-release-win32-seh-ucrt-rt_v12-rev0/mingw64/bin/../lib/gcc/x86_64-w64-mingw32/15.1.0/../../../../x86_64-w64-mingw32/lib/../lib/libmsvcrt.a(libapi-ms-win-crt-string-l1-1-0s00170.o)
                0x0000000140009460                __imp_strncmp
 .idata$5       0x0000000140009468        0x8 C:/Users/lenovo/Downloads/x86_64-15.1.0-release-win32-seh-ucrt-rt_v12-rev0/mingw64/bin/../lib/gcc/x86_64-w64-mingw32/15.1.0/../../../../x86_64-w64-mingw32/lib/../lib/libmsvcrt.a(libapi-ms-win-crt-string-l1-1-0t.o)
 .idata$5       0x0000000140009470        0x0 C:/Users/lenovo/Downloads/x86_64-15.1.0-release-win32-seh-ucrt-rt_v12-rev0/mingw64/bin/../lib/gcc/x86_64-w64-mingw32/15.1.0/../../../../x86_64-w64-mingw32/lib/../lib/libmsvcrt.a(libapi-ms-win-crt-time-l1-1-0h.o)
 .idata$5       0x0000000140009470        0x8 C:/Users/lenovo/Downloads/x86_64-15.1.0-release-win32-seh-ucrt-rt_v12-rev0/mingw64/bin/../lib/gcc/x86_64-w64-mingw32/15.1.0/../../../../x86_64-w64-mingw32/lib/../lib/libmsvcrt.a(libapi-ms-win-crt-time-l1-1-0s00010.o)
                0x0000000140009470                __imp___daylight
 .idata$5       0x0000000140009478        0x8 C:/Users/lenovo/Downloads/x86_64-15.1.0-release-win32-seh-ucrt-rt_v12-rev0/mingw64/bin/../lib/gcc/x86_64-w64-mingw32/15.1.0/../../../../x86_64-w64-mingw32/lib/../lib/libmsvcrt.a(libapi-ms-win-crt-time-l1-1-0s00012.o)
                0x0000000140009478                __imp___timezone
 .idata$5       0x0000000140009480        0x8 C:/Users/lenovo/Downloads/x86_64-15.1.0-release-win32-seh-ucrt-rt_v12-rev0/mingw64/bin/../lib/gcc/x86_64-w64-mingw32/15.1.0/../../../../x86_64-w64-mingw32/lib/../lib/libmsvcrt.a(libapi-ms-win-crt-time-l1-1-0s00013.o)
                0x0000000140009480                __imp___tzname
 .idata$5       0x0000000140009488        0x8 C:/Users/lenovo/Downloads/x86_64-15.1.0-release-win32-seh-ucrt-rt_v12-rev0/mingw64/bin/../lib/gcc/x86_64-w64-mingw32/15.1.0/../../../../x86_64-w64-mingw32/lib/../lib/libmsvcrt.a(libapi-ms-win-crt-time-l1-1-0s00061.o)
                0x0000000140009488                __imp__tzset
 .idata$5       0x0000000140009490        0x8 C:/Users/lenovo/Downloads/x86_64-15.1.0-release-win32-seh-ucrt-rt_v12-rev0/mingw64/bin/../lib/gcc/x86_64-w64-mingw32/15.1.0/../../../../x86_64-w64-mingw32/lib/../lib/libmsvcrt.a(libapi-ms-win-crt-time-l1-1-0t.o)
 .idata$5       0x0000000140009498        0x0 C:/Users/lenovo/Downloads/x86_64-15.1.0-release-win32-seh-ucrt-rt_v12-rev0/mingw64/bin/../lib/gcc/x86_64-w64-mingw32/15.1.0/libstdc++.dll.a(libstdc___6_dll_d000000.o)
 .idata$5       0x0000000140009498        0x8 C:/Users/lenovo/Downloads/x86_64-15.1.0-release-win32-seh-ucrt-rt_v12-rev0/mingw64/bin/../lib/gcc/x86_64-w64-mingw32/15.1.0/libstdc++.dll.a(libstdc___6_dll_d001917.o)
                0x0000000140009498                __imp__ZNSolsEPFRSoS_E
 .idata$5       0x00000001400094a0        0x8 C:/Users/lenovo/Downloads/x86_64-15.1.0-release-win32-seh-ucrt-rt_v12-rev0/mingw64/bin/../lib/gcc/x86_64-w64-mingw32/15.1.0/libstdc++.dll.a(libstdc___6_dll_d001926.o)
                0x00000001400094a0                __imp__ZNSolsEi
 .idata$5       0x00000001400094a8        0x8 C:/Users/lenovo/Downloads/x86_64-15.1.0-release-win32-seh-ucrt-rt_v12-rev0/mingw64/bin/../lib/gcc/x86_64-w64-mingw32/15.1.0/libstdc++.dll.a(libstdc___6_dll_d005599.o)
                0x00000001400094a8                __imp__ZSt4cout
                0x00000001400094a8                __imp__ZSt4cout
 .idata$5       0x00000001400094b0        0x8 C:/Users/lenovo/Downloads/x86_64-15.1.0-release-win32-seh-ucrt-rt_v12-rev0/mingw64/bin/../lib/gcc/x86_64-w64-mingw32/15.1.0/libstdc++.dll.a(libstdc___6_dll_d005600.o)
                0x00000001400094b0                __imp__ZSt4endlIcSt11char_traitsIcEERSt13basic_ostreamIT_T0_ES6_
 .idata$5       0x00000001400094b8        0x8 C:/Users/lenovo/Downloads/x86_64-15.1.0-release-win32-seh-ucrt-rt_v12-rev0/mingw64/bin/../lib/gcc/x86_64-w64-mingw32/15.1.0/libstdc++.dll.a(libstdc___6_dll_d006872.o)
                0x00000001400094c0                __IAT_end__ = .
 SORT_BY_NAME(*)(.idata$6)
 .idata$6       0x00000001400094c0       0x18 C:/Users/lenovo/Downloads/x86_64-15.1.0-release-win32-seh-ucrt-rt_v12-rev0/mingw64/bin/../lib/gcc/x86_64-w64-mingw32/15.1.0/../../../../x86_64-w64-mingw32/lib/../lib/libkernel32.a(libkernel32s00292.o)
 .idata$6       0x00000001400094d8       0x18 C:/Users/lenovo/Downloads/x86_64-15.1.0-release-win32-seh-ucrt-rt_v12-rev0/mingw64/bin/../lib/gcc/x86_64-w64-mingw32/15.1.0/../../../../x86_64-w64-mingw32/lib/../lib/libkernel32.a(libkernel32s00330.o)
 .idata$6       0x00000001400094f0       0x10 C:/Users/lenovo/Downloads/x86_64-15.1.0-release-win32-seh-ucrt-rt_v12-rev0/mingw64/bin/../lib/gcc/x86_64-w64-mingw32/15.1.0/../../../../x86_64-w64-mingw32/lib/../lib/libkernel32.a(libkernel32s00643.o)
 .idata$6       0x0000000140009500       0x1c C:/Users/lenovo/Downloads/x86_64-15.1.0-release-win32-seh-ucrt-rt_v12-rev0/mingw64/bin/../lib/gcc/x86_64-w64-mingw32/15.1.0/../../../../x86_64-w64-mingw32/lib/../lib/libkernel32.a(libkernel32s00913.o)
 .idata$6       0x000000014000951c       0x18 C:/Users/lenovo/Downloads/x86_64-15.1.0-release-win32-seh-ucrt-rt_v12-rev0/mingw64/bin/../lib/gcc/x86_64-w64-mingw32/15.1.0/../../../../x86_64-w64-mingw32/lib/../lib/libkernel32.a(libkernel32s01007.o)
 .idata$6       0x0000000140009534       0x1e C:/Users/lenovo/Downloads/x86_64-15.1.0-release-win32-seh-ucrt-rt_v12-rev0/mingw64/bin/../lib/gcc/x86_64-w64-mingw32/15.1.0/../../../../x86_64-w64-mingw32/lib/../lib/libkernel32.a(libkernel32s01427.o)
 .idata$6       0x0000000140009552        0x8 C:/Users/lenovo/Downloads/x86_64-15.1.0-release-win32-seh-ucrt-rt_v12-rev0/mingw64/bin/../lib/gcc/x86_64-w64-mingw32/15.1.0/../../../../x86_64-w64-mingw32/lib/../lib/libkernel32.a(libkernel32s01443.o)
 .idata$6       0x000000014000955a        0xe C:/Users/lenovo/Downloads/x86_64-15.1.0-release-win32-seh-ucrt-rt_v12-rev0/mingw64/bin/../lib/gcc/x86_64-w64-mingw32/15.1.0/../../../../x86_64-w64-mingw32/lib/../lib/libkernel32.a(libkernel32s01479.o)
 .idata$6       0x0000000140009568       0x12 C:/Users/lenovo/Downloads/x86_64-15.1.0-release-win32-seh-ucrt-rt_v12-rev0/mingw64/bin/../lib/gcc/x86_64-w64-mingw32/15.1.0/../../../../x86_64-w64-mingw32/lib/../lib/libkernel32.a(libkernel32s01526.o)
 .idata$6       0x000000014000957a       0x10 C:/Users/lenovo/Downloads/x86_64-15.1.0-release-win32-seh-ucrt-rt_v12-rev0/mingw64/bin/../lib/gcc/x86_64-w64-mingw32/15.1.0/../../../../x86_64-w64-mingw32/lib/../lib/libkernel32.a(libkernel32s01528.o)
 .idata$6       0x000000014000958a       0x10 C:/Users/lenovo/Downloads/x86_64-15.1.0-release-win32-seh-ucrt-rt_v12-rev0/mingw64/bin/../lib/gcc/x86_64-w64-mingw32/15.1.0/../../../../x86_64-w64-mingw32/lib/../lib/libmsvcrt.a(libapi-ms-win-crt-environment-l1-1-0s00000.o)
 .idata$6       0x000000014000959a       0x10 C:/Users/lenovo/Downloads/x86_64-15.1.0-release-win32-seh-ucrt-rt_v12-rev0/mingw64/bin/../lib/gcc/x86_64-w64-mingw32/15.1.0/../../../../x86_64-w64-mingw32/lib/../lib/libmsvcrt.a(libapi-ms-win-crt-environment-l1-1-0s00001.o)
 .idata$6       0x00000001400095aa       0x10 C:/Users/lenovo/Downloads/x86_64-15.1.0-release-win32-seh-ucrt-rt_v12-rev0/mingw64/bin/../lib/gcc/x86_64-w64-mingw32/15.1.0/../../../../x86_64-w64-mingw32/lib/../lib/libmsvcrt.a(libapi-ms-win-crt-heap-l1-1-0s00023.o)
 .idata$6       0x00000001400095ba        0xa C:/Users/lenovo/Downloads/x86_64-15.1.0-release-win32-seh-ucrt-rt_v12-rev0/mingw64/bin/../lib/gcc/x86_64-w64-mingw32/15.1.0/../../../../x86_64-w64-mingw32/lib/../lib/libmsvcrt.a(libapi-ms-win-crt-heap-l1-1-0s00024.o)
 .idata$6       0x00000001400095c4        0x8 C:/Users/lenovo/Downloads/x86_64-15.1.0-release-win32-seh-ucrt-rt_v12-rev0/mingw64/bin/../lib/gcc/x86_64-w64-mingw32/15.1.0/../../../../x86_64-w64-mingw32/lib/../lib/libmsvcrt.a(libapi-ms-win-crt-heap-l1-1-0s00025.o)
 .idata$6       0x00000001400095cc        0xa C:/Users/lenovo/Downloads/x86_64-15.1.0-release-win32-seh-ucrt-rt_v12-rev0/mingw64/bin/../lib/gcc/x86_64-w64-mingw32/15.1.0/../../../../x86_64-w64-mingw32/lib/../lib/libmsvcrt.a(libapi-ms-win-crt-heap-l1-1-0s00026.o)
 .idata$6       0x00000001400095d6       0x14 C:/Users/lenovo/Downloads/x86_64-15.1.0-release-win32-seh-ucrt-rt_v12-rev0/mingw64/bin/../lib/gcc/x86_64-w64-mingw32/15.1.0/../../../../x86_64-w64-mingw32/lib/../lib/libmsvcrt.a(libapi-ms-win-crt-math-l1-1-0s00009.o)
 .idata$6       0x00000001400095ea       0x18 C:/Users/lenovo/Downloads/x86_64-15.1.0-release-win32-seh-ucrt-rt_v12-rev0/mingw64/bin/../lib/gcc/x86_64-w64-mingw32/15.1.0/../../../../x86_64-w64-mingw32/lib/../lib/libmsvcrt.a(libapi-ms-win-crt-private-l1-1-0s00015.o)
 .idata$6       0x0000000140009602        0xa C:/Users/lenovo/Downloads/x86_64-15.1.0-release-win32-seh-ucrt-rt_v12-rev0/mingw64/bin/../lib/gcc/x86_64-w64-mingw32/15.1.0/../../../../x86_64-w64-mingw32/lib/../lib/libmsvcrt.a(libapi-ms-win-crt-private-l1-1-0s01143.o)
 .idata$6       0x000000014000960c        0xe C:/Users/lenovo/Downloads/x86_64-15.1.0-release-win32-seh-ucrt-rt_v12-rev0/mingw64/bin/../lib/gcc/x86_64-w64-mingw32/15.1.0/../../../../x86_64-w64-mingw32/lib/../lib/libmsvcrt.a(libapi-ms-win-crt-runtime-l1-1-0s00004.o)
 .idata$6       0x000000014000961a        0xe C:/Users/lenovo/Downloads/x86_64-15.1.0-release-win32-seh-ucrt-rt_v12-rev0/mingw64/bin/../lib/gcc/x86_64-w64-mingw32/15.1.0/../../../../x86_64-w64-mingw32/lib/../lib/libmsvcrt.a(libapi-ms-win-crt-runtime-l1-1-0s00005.o)
 .idata$6       0x0000000140009628        0xe C:/Users/lenovo/Downloads/x86_64-15.1.0-release-win32-seh-ucrt-rt_v12-rev0/mingw64/bin/../lib/gcc/x86_64-w64-mingw32/15.1.0/../../../../x86_64-w64-mingw32/lib/../lib/libmsvcrt.a(libapi-ms-win-crt-runtime-l1-1-0s00006.o)
 .idata$6       0x0000000140009636        0xa C:/Users/lenovo/Downloads/x86_64-15.1.0-release-win32-seh-ucrt-rt_v12-rev0/mingw64/bin/../lib/gcc/x86_64-w64-mingw32/15.1.0/../../../../x86_64-w64-mingw32/lib/../lib/libmsvcrt.a(libapi-ms-win-crt-runtime-l1-1-0s00022.o)
 .idata$6       0x0000000140009640       0x1a C:/Users/lenovo/Downloads/x86_64-15.1.0-release-win32-seh-ucrt-rt_v12-rev0/mingw64/bin/../lib/gcc/x86_64-w64-mingw32/15.1.0/../../../../x86_64-w64-mingw32/lib/../lib/libmsvcrt.a(libapi-ms-win-crt-runtime-l1-1-0s00024.o)
 .idata$6       0x000000014000965a       0x18 C:/Users/lenovo/Downloads/x86_64-15.1.0-release-win32-seh-ucrt-rt_v12-rev0/mingw64/bin/../lib/gcc/x86_64-w64-mingw32/15.1.0/../../../../x86_64-w64-mingw32/lib/../lib/libmsvcrt.a(libapi-ms-win-crt-runtime-l1-1-0s00025.o)
 .idata$6       0x0000000140009672       0x16 C:/Users/lenovo/Downloads/x86_64-15.1.0-release-win32-seh-ucrt-rt_v12-rev0/mingw64/bin/../lib/gcc/x86_64-w64-mingw32/15.1.0/../../../../x86_64-w64-mingw32/lib/../lib/libmsvcrt.a(libapi-ms-win-crt-runtime-l1-1-0s00029.o)
 .idata$6       0x0000000140009688        0xe C:/Users/lenovo/Downloads/x86_64-15.1.0-release-win32-seh-ucrt-rt_v12-rev0/mingw64/bin/../lib/gcc/x86_64-w64-mingw32/15.1.0/../../../../x86_64-w64-mingw32/lib/../lib/libmsvcrt.a(libapi-ms-win-crt-runtime-l1-1-0s00030.o)
 .idata$6       0x0000000140009696        0x8 C:/Users/lenovo/Downloads/x86_64-15.1.0-release-win32-seh-ucrt-rt_v12-rev0/mingw64/bin/../lib/gcc/x86_64-w64-mingw32/15.1.0/../../../../x86_64-w64-mingw32/lib/../lib/libmsvcrt.a(libapi-ms-win-crt-runtime-l1-1-0s00036.o)
 .idata$6       0x000000014000969e       0x22 C:/Users/lenovo/Downloads/x86_64-15.1.0-release-win32-seh-ucrt-rt_v12-rev0/mingw64/bin/../lib/gcc/x86_64-w64-mingw32/15.1.0/../../../../x86_64-w64-mingw32/lib/../lib/libmsvcrt.a(libapi-ms-win-crt-runtime-l1-1-0s00053.o)
 .idata$6       0x00000001400096c0       0x20 C:/Users/lenovo/Downloads/x86_64-15.1.0-release-win32-seh-ucrt-rt_v12-rev0/mingw64/bin/../lib/gcc/x86_64-w64-mingw32/15.1.0/../../../../x86_64-w64-mingw32/lib/../lib/libmsvcrt.a(libapi-ms-win-crt-runtime-l1-1-0s00055.o)
 .idata$6       0x00000001400096e0        0xc C:/Users/lenovo/Downloads/x86_64-15.1.0-release-win32-seh-ucrt-rt_v12-rev0/mingw64/bin/../lib/gcc/x86_64-w64-mingw32/15.1.0/../../../../x86_64-w64-mingw32/lib/../lib/libmsvcrt.a(libapi-ms-win-crt-runtime-l1-1-0s00056.o)
 .idata$6       0x00000001400096ec       0x10 C:/Users/lenovo/Downloads/x86_64-15.1.0-release-win32-seh-ucrt-rt_v12-rev0/mingw64/bin/../lib/gcc/x86_64-w64-mingw32/15.1.0/../../../../x86_64-w64-mingw32/lib/../lib/libmsvcrt.a(libapi-ms-win-crt-runtime-l1-1-0s00068.o)
 .idata$6       0x00000001400096fc       0x22 C:/Users/lenovo/Downloads/x86_64-15.1.0-release-win32-seh-ucrt-rt_v12-rev0/mingw64/bin/../lib/gcc/x86_64-w64-mingw32/15.1.0/../../../../x86_64-w64-mingw32/lib/../lib/libmsvcrt.a(libapi-ms-win-crt-runtime-l1-1-0s00074.o)
 .idata$6       0x000000014000971e        0x8 C:/Users/lenovo/Downloads/x86_64-15.1.0-release-win32-seh-ucrt-rt_v12-rev0/mingw64/bin/../lib/gcc/x86_64-w64-mingw32/15.1.0/../../../../x86_64-w64-mingw32/lib/../lib/libmsvcrt.a(libapi-ms-win-crt-runtime-l1-1-0s00087.o)
 .idata$6       0x0000000140009726        0x8 C:/Users/lenovo/Downloads/x86_64-15.1.0-release-win32-seh-ucrt-rt_v12-rev0/mingw64/bin/../lib/gcc/x86_64-w64-mingw32/15.1.0/../../../../x86_64-w64-mingw32/lib/../lib/libmsvcrt.a(libapi-ms-win-crt-runtime-l1-1-0s00088.o)
 .idata$6       0x000000014000972e        0xa C:/Users/lenovo/Downloads/x86_64-15.1.0-release-win32-seh-ucrt-rt_v12-rev0/mingw64/bin/../lib/gcc/x86_64-w64-mingw32/15.1.0/../../../../x86_64-w64-mingw32/lib/../lib/libmsvcrt.a(libapi-ms-win-crt-runtime-l1-1-0s00102.o)
 .idata$6       0x0000000140009738       0x12 C:/Users/lenovo/Downloads/x86_64-15.1.0-release-win32-seh-ucrt-rt_v12-rev0/mingw64/bin/../lib/gcc/x86_64-w64-mingw32/15.1.0/../../../../x86_64-w64-mingw32/lib/../lib/libmsvcrt.a(libapi-ms-win-crt-stdio-l1-1-0s00000.o)
 .idata$6       0x000000014000974a       0x10 C:/Users/lenovo/Downloads/x86_64-15.1.0-release-win32-seh-ucrt-rt_v12-rev0/mingw64/bin/../lib/gcc/x86_64-w64-mingw32/15.1.0/../../../../x86_64-w64-mingw32/lib/../lib/libmsvcrt.a(libapi-ms-win-crt-stdio-l1-1-0s00001.o)
 .idata$6       0x000000014000975a        0xe C:/Users/lenovo/Downloads/x86_64-15.1.0-release-win32-seh-ucrt-rt_v12-rev0/mingw64/bin/../lib/gcc/x86_64-w64-mingw32/15.1.0/../../../../x86_64-w64-mingw32/lib/../lib/libmsvcrt.a(libapi-ms-win-crt-stdio-l1-1-0s00002.o)
 .idata$6       0x0000000140009768       0x1a C:/Users/lenovo/Downloads/x86_64-15.1.0-release-win32-seh-ucrt-rt_v12-rev0/mingw64/bin/../lib/gcc/x86_64-w64-mingw32/15.1.0/../../../../x86_64-w64-mingw32/lib/../lib/libmsvcrt.a(libapi-ms-win-crt-stdio-l1-1-0s00003.o)
 .idata$6       0x0000000140009782       0x1c C:/Users/lenovo/Downloads/x86_64-15.1.0-release-win32-seh-ucrt-rt_v12-rev0/mingw64/bin/../lib/gcc/x86_64-w64-mingw32/15.1.0/../../../../x86_64-w64-mingw32/lib/../lib/libmsvcrt.a(libapi-ms-win-crt-stdio-l1-1-0s00007.o)
 .idata$6       0x000000014000979e        0xa C:/Users/lenovo/Downloads/x86_64-15.1.0-release-win32-seh-ucrt-rt_v12-rev0/mingw64/bin/../lib/gcc/x86_64-w64-mingw32/15.1.0/../../../../x86_64-w64-mingw32/lib/../lib/libmsvcrt.a(libapi-ms-win-crt-stdio-l1-1-0s00169.o)
 .idata$6       0x00000001400097a8        0xa C:/Users/lenovo/Downloads/x86_64-15.1.0-release-win32-seh-ucrt-rt_v12-rev0/mingw64/bin/../lib/gcc/x86_64-w64-mingw32/15.1.0/../../../../x86_64-w64-mingw32/lib/../lib/libmsvcrt.a(libapi-ms-win-crt-string-l1-1-0s00167.o)
 .idata$6       0x00000001400097b2        0xa C:/Users/lenovo/Downloads/x86_64-15.1.0-release-win32-seh-ucrt-rt_v12-rev0/mingw64/bin/../lib/gcc/x86_64-w64-mingw32/15.1.0/../../../../x86_64-w64-mingw32/lib/../lib/libmsvcrt.a(libapi-ms-win-crt-string-l1-1-0s00170.o)
 .idata$6       0x00000001400097bc        0xe C:/Users/lenovo/Downloads/x86_64-15.1.0-release-win32-seh-ucrt-rt_v12-rev0/mingw64/bin/../lib/gcc/x86_64-w64-mingw32/15.1.0/../../../../x86_64-w64-mingw32/lib/../lib/libmsvcrt.a(libapi-ms-win-crt-time-l1-1-0s00010.o)
 .idata$6       0x00000001400097ca        0xe C:/Users/lenovo/Downloads/x86_64-15.1.0-release-win32-seh-ucrt-rt_v12-rev0/mingw64/bin/../lib/gcc/x86_64-w64-mingw32/15.1.0/../../../../x86_64-w64-mingw32/lib/../lib/libmsvcrt.a(libapi-ms-win-crt-time-l1-1-0s00012.o)
 .idata$6       0x00000001400097d8        0xc C:/Users/lenovo/Downloads/x86_64-15.1.0-release-win32-seh-ucrt-rt_v12-rev0/mingw64/bin/../lib/gcc/x86_64-w64-mingw32/15.1.0/../../../../x86_64-w64-mingw32/lib/../lib/libmsvcrt.a(libapi-ms-win-crt-time-l1-1-0s00013.o)
 .idata$6       0x00000001400097e4        0xa C:/Users/lenovo/Downloads/x86_64-15.1.0-release-win32-seh-ucrt-rt_v12-rev0/mingw64/bin/../lib/gcc/x86_64-w64-mingw32/15.1.0/../../../../x86_64-w64-mingw32/lib/../lib/libmsvcrt.a(libapi-ms-win-crt-time-l1-1-0s00061.o)
 *fill*         0x00000001400097ee        0x2 
 .idata$6       0x00000001400097f0       0x14 C:/Users/lenovo/Downloads/x86_64-15.1.0-release-win32-seh-ucrt-rt_v12-rev0/mingw64/bin/../lib/gcc/x86_64-w64-mingw32/15.1.0/libstdc++.dll.a(libstdc___6_dll_d001917.o)
 .idata$6       0x0000000140009804        0xc C:/Users/lenovo/Downloads/x86_64-15.1.0-release-win32-seh-ucrt-rt_v12-rev0/mingw64/bin/../lib/gcc/x86_64-w64-mingw32/15.1.0/libstdc++.dll.a(libstdc___6_dll_d001926.o)
 .idata$6       0x0000000140009810        0xc C:/Users/lenovo/Downloads/x86_64-15.1.0-release-win32-seh-ucrt-rt_v12-rev0/mingw64/bin/../lib/gcc/x86_64-w64-mingw32/15.1.0/libstdc++.dll.a(libstdc___6_dll_d005599.o)
                0x0000000140009810                __nm__ZSt4cout
 .idata$6       0x000000014000981c       0x40 C:/Users/lenovo/Downloads/x86_64-15.1.0-release-win32-seh-ucrt-rt_v12-rev0/mingw64/bin/../lib/gcc/x86_64-w64-mingw32/15.1.0/libstdc++.dll.a(libstdc___6_dll_d005600.o)
 SORT_BY_NAME(*)(.idata$7)
 .idata$7       0x000000014000985c        0x4 C:/Users/lenovo/Downloads/x86_64-15.1.0-release-win32-seh-ucrt-rt_v12-rev0/mingw64/bin/../lib/gcc/x86_64-w64-mingw32/15.1.0/../../../../x86_64-w64-mingw32/lib/../lib/libkernel32.a(libkernel32s00292.o)
 .idata$7       0x0000000140009860        0x4 C:/Users/lenovo/Downloads/x86_64-15.1.0-release-win32-seh-ucrt-rt_v12-rev0/mingw64/bin/../lib/gcc/x86_64-w64-mingw32/15.1.0/../../../../x86_64-w64-mingw32/lib/../lib/libkernel32.a(libkernel32s00330.o)
 .idata$7       0x0000000140009864        0x4 C:/Users/lenovo/Downloads/x86_64-15.1.0-release-win32-seh-ucrt-rt_v12-rev0/mingw64/bin/../lib/gcc/x86_64-w64-mingw32/15.1.0/../../../../x86_64-w64-mingw32/lib/../lib/libkernel32.a(libkernel32s00643.o)
 .idata$7       0x0000000140009868        0x4 C:/Users/lenovo/Downloads/x86_64-15.1.0-release-win32-seh-ucrt-rt_v12-rev0/mingw64/bin/../lib/gcc/x86_64-w64-mingw32/15.1.0/../../../../x86_64-w64-mingw32/lib/../lib/libkernel32.a(libkernel32s00913.o)
 .idata$7       0x000000014000986c        0x4 C:/Users/lenovo/Downloads/x86_64-15.1.0-release-win32-seh-ucrt-rt_v12-rev0/mingw64/bin/../lib/gcc/x86_64-w64-mingw32/15.1.0/../../../../x86_64-w64-mingw32/lib/../lib/libkernel32.a(libkernel32s01007.o)
 .idata$7       0x0000000140009870        0x4 C:/Users/lenovo/Downloads/x86_64-15.1.0-release-win32-seh-ucrt-rt_v12-rev0/mingw64/bin/../lib/gcc/x86_64-w64-mingw32/15.1.0/../../../../x86_64-w64-mingw32/lib/../lib/libkernel32.a(libkernel32s01427.o)
 .idata$7       0x0000000140009874        0x4 C:/Users/lenovo/Downloads/x86_64-15.1.0-release-win32-seh-ucrt-rt_v12-rev0/mingw64/bin/../lib/gcc/x86_64-w64-mingw32/15.1.0/../../../../x86_64-w64-mingw32/lib/../lib/libkernel32.a(libkernel32s01443.o)
 .idata$7       0x0000000140009878        0x4 C:/Users/lenovo/Downloads/x86_64-15.1.0-release-win32-seh-ucrt-rt_v12-rev0/mingw64/bin/../lib/gcc/x86_64-w64-mingw32/15.1.0/../../../../x86_64-w64-mingw32/lib/../lib/libkernel32.a(libkernel32s01479.o)
 .idata$7       0x000000014000987c        0x4 C:/Users/lenovo/Downloads/x86_64-15.1.0-release-win32-seh-ucrt-rt_v12-rev0/mingw64/bin/../lib/gcc/x86_64-w64-mingw32/15.1.0/../../../../x86_64-w64-mingw32/lib/../lib/libkernel32.a(libkernel32s01526.o)
 .idata$7       0x0000000140009880        0x4 C:/Users/lenovo/Downloads/x86_64-15.1.0-release-win32-seh-ucrt-rt_v12-rev0/mingw64/bin/../lib/gcc/x86_64-w64-mingw32/15.1.0/../../../../x86_64-w64-mingw32/lib/../lib/libkernel32.a(libkernel32s01528.o)
 .idata$7       0x0000000140009884       0x10 C:/Users/lenovo/Downloads/x86_64-15.1.0-release-win32-seh-ucrt-rt_v12-rev0/mingw64/bin/../lib/gcc/x86_64-w64-mingw32/15.1.0/../../../../x86_64-w64-mingw32/lib/../lib/libkernel32.a(libkernel32t.o)
                0x0000000140009884                __lib64_libkernel32_a_iname
 .idata$7       0x0000000140009894        0x4 C:/Users/lenovo/Downloads/x86_64-15.1.0-release-win32-seh-ucrt-rt_v12-rev0/mingw64/bin/../lib/gcc/x86_64-w64-mingw32/15.1.0/../../../../x86_64-w64-mingw32/lib/../lib/libmsvcrt.a(libapi-ms-win-crt-environment-l1-1-0s00000.o)
 .idata$7       0x0000000140009898        0x4 C:/Users/lenovo/Downloads/x86_64-15.1.0-release-win32-seh-ucrt-rt_v12-rev0/mingw64/bin/../lib/gcc/x86_64-w64-mingw32/15.1.0/../../../../x86_64-w64-mingw32/lib/../lib/libmsvcrt.a(libapi-ms-win-crt-environment-l1-1-0s00001.o)
 .idata$7       0x000000014000989c       0x28 C:/Users/lenovo/Downloads/x86_64-15.1.0-release-win32-seh-ucrt-rt_v12-rev0/mingw64/bin/../lib/gcc/x86_64-w64-mingw32/15.1.0/../../../../x86_64-w64-mingw32/lib/../lib/libmsvcrt.a(libapi-ms-win-crt-environment-l1-1-0t.o)
                0x000000014000989c                __lib64_libapi_ms_win_crt_environment_l1_1_0_a_iname
 .idata$7       0x00000001400098c4        0x4 C:/Users/lenovo/Downloads/x86_64-15.1.0-release-win32-seh-ucrt-rt_v12-rev0/mingw64/bin/../lib/gcc/x86_64-w64-mingw32/15.1.0/../../../../x86_64-w64-mingw32/lib/../lib/libmsvcrt.a(libapi-ms-win-crt-heap-l1-1-0s00023.o)
 .idata$7       0x00000001400098c8        0x4 C:/Users/lenovo/Downloads/x86_64-15.1.0-release-win32-seh-ucrt-rt_v12-rev0/mingw64/bin/../lib/gcc/x86_64-w64-mingw32/15.1.0/../../../../x86_64-w64-mingw32/lib/../lib/libmsvcrt.a(libapi-ms-win-crt-heap-l1-1-0s00024.o)
 .idata$7       0x00000001400098cc        0x4 C:/Users/lenovo/Downloads/x86_64-15.1.0-release-win32-seh-ucrt-rt_v12-rev0/mingw64/bin/../lib/gcc/x86_64-w64-mingw32/15.1.0/../../../../x86_64-w64-mingw32/lib/../lib/libmsvcrt.a(libapi-ms-win-crt-heap-l1-1-0s00025.o)
 .idata$7       0x00000001400098d0        0x4 C:/Users/lenovo/Downloads/x86_64-15.1.0-release-win32-seh-ucrt-rt_v12-rev0/mingw64/bin/../lib/gcc/x86_64-w64-mingw32/15.1.0/../../../../x86_64-w64-mingw32/lib/../lib/libmsvcrt.a(libapi-ms-win-crt-heap-l1-1-0s00026.o)
 .idata$7       0x00000001400098d4       0x20 C:/Users/lenovo/Downloads/x86_64-15.1.0-release-win32-seh-ucrt-rt_v12-rev0/mingw64/bin/../lib/gcc/x86_64-w64-mingw32/15.1.0/../../../../x86_64-w64-mingw32/lib/../lib/libmsvcrt.a(libapi-ms-win-crt-heap-l1-1-0t.o)
                0x00000001400098d4                __lib64_libapi_ms_win_crt_heap_l1_1_0_a_iname
 .idata$7       0x00000001400098f4        0x4 C:/Users/lenovo/Downloads/x86_64-15.1.0-release-win32-seh-ucrt-rt_v12-rev0/mingw64/bin/../lib/gcc/x86_64-w64-mingw32/15.1.0/../../../../x86_64-w64-mingw32/lib/../lib/libmsvcrt.a(libapi-ms-win-crt-math-l1-1-0s00009.o)
 .idata$7       0x00000001400098f8       0x20 C:/Users/lenovo/Downloads/x86_64-15.1.0-release-win32-seh-ucrt-rt_v12-rev0/mingw64/bin/../lib/gcc/x86_64-w64-mingw32/15.1.0/../../../../x86_64-w64-mingw32/lib/../lib/libmsvcrt.a(libapi-ms-win-crt-math-l1-1-0t.o)
                0x00000001400098f8                __lib64_libapi_ms_win_crt_math_l1_1_0_a_iname
 .idata$7       0x0000000140009918        0x4 C:/Users/lenovo/Downloads/x86_64-15.1.0-release-win32-seh-ucrt-rt_v12-rev0/mingw64/bin/../lib/gcc/x86_64-w64-mingw32/15.1.0/../../../../x86_64-w64-mingw32/lib/../lib/libmsvcrt.a(libapi-ms-win-crt-private-l1-1-0s00015.o)
 .idata$7       0x000000014000991c        0x4 C:/Users/lenovo/Downloads/x86_64-15.1.0-release-win32-seh-ucrt-rt_v12-rev0/mingw64/bin/../lib/gcc/x86_64-w64-mingw32/15.1.0/../../../../x86_64-w64-mingw32/lib/../lib/libmsvcrt.a(libapi-ms-win-crt-private-l1-1-0s01143.o)
 .idata$7       0x0000000140009920       0x24 C:/Users/lenovo/Downloads/x86_64-15.1.0-release-win32-seh-ucrt-rt_v12-rev0/mingw64/bin/../lib/gcc/x86_64-w64-mingw32/15.1.0/../../../../x86_64-w64-mingw32/lib/../lib/libmsvcrt.a(libapi-ms-win-crt-private-l1-1-0t.o)
                0x0000000140009920                __lib64_libapi_ms_win_crt_private_l1_1_0_a_iname
 .idata$7       0x0000000140009944        0x4 C:/Users/lenovo/Downloads/x86_64-15.1.0-release-win32-seh-ucrt-rt_v12-rev0/mingw64/bin/../lib/gcc/x86_64-w64-mingw32/15.1.0/../../../../x86_64-w64-mingw32/lib/../lib/libmsvcrt.a(libapi-ms-win-crt-runtime-l1-1-0s00004.o)
 .idata$7       0x0000000140009948        0x4 C:/Users/lenovo/Downloads/x86_64-15.1.0-release-win32-seh-ucrt-rt_v12-rev0/mingw64/bin/../lib/gcc/x86_64-w64-mingw32/15.1.0/../../../../x86_64-w64-mingw32/lib/../lib/libmsvcrt.a(libapi-ms-win-crt-runtime-l1-1-0s00005.o)
 .idata$7       0x000000014000994c        0x4 C:/Users/lenovo/Downloads/x86_64-15.1.0-release-win32-seh-ucrt-rt_v12-rev0/mingw64/bin/../lib/gcc/x86_64-w64-mingw32/15.1.0/../../../../x86_64-w64-mingw32/lib/../lib/libmsvcrt.a(libapi-ms-win-crt-runtime-l1-1-0s00006.o)
 .idata$7       0x0000000140009950        0x4 C:/Users/lenovo/Downloads/x86_64-15.1.0-release-win32-seh-ucrt-rt_v12-rev0/mingw64/bin/../lib/gcc/x86_64-w64-mingw32/15.1.0/../../../../x86_64-w64-mingw32/lib/../lib/libmsvcrt.a(libapi-ms-win-crt-runtime-l1-1-0s00022.o)
 .idata$7       0x0000000140009954        0x4 C:/Users/lenovo/Downloads/x86_64-15.1.0-release-win32-seh-ucrt-rt_v12-rev0/mingw64/bin/../lib/gcc/x86_64-w64-mingw32/15.1.0/../../../../x86_64-w64-mingw32/lib/../lib/libmsvcrt.a(libapi-ms-win-crt-runtime-l1-1-0s00024.o)
 .idata$7       0x0000000140009958        0x4 C:/Users/lenovo/Downloads/x86_64-15.1.0-release-win32-seh-ucrt-rt_v12-rev0/mingw64/bin/../lib/gcc/x86_64-w64-mingw32/15.1.0/../../../../x86_64-w64-mingw32/lib/../lib/libmsvcrt.a(libapi-ms-win-crt-runtime-l1-1-0s00025.o)
 .idata$7       0x000000014000995c        0x4 C:/Users/lenovo/Downloads/x86_64-15.1.0-release-win32-seh-ucrt-rt_v12-rev0/mingw64/bin/../lib/gcc/x86_64-w64-mingw32/15.1.0/../../../../x86_64-w64-mingw32/lib/../lib/libmsvcrt.a(libapi-ms-win-crt-runtime-l1-1-0s00029.o)
 .idata$7       0x0000000140009960        0x4 C:/Users/lenovo/Downloads/x86_64-15.1.0-release-win32-seh-ucrt-rt_v12-rev0/mingw64/bin/../lib/gcc/x86_64-w64-mingw32/15.1.0/../../../../x86_64-w64-mingw32/lib/../lib/libmsvcrt.a(libapi-ms-win-crt-runtime-l1-1-0s00030.o)
 .idata$7       0x0000000140009964        0x4 C:/Users/lenovo/Downloads/x86_64-15.1.0-release-win32-seh-ucrt-rt_v12-rev0/mingw64/bin/../lib/gcc/x86_64-w64-mingw32/15.1.0/../../../../x86_64-w64-mingw32/lib/../lib/libmsvcrt.a(libapi-ms-win-crt-runtime-l1-1-0s00036.o)
 .idata$7       0x0000000140009968        0x4 C:/Users/lenovo/Downloads/x86_64-15.1.0-release-win32-seh-ucrt-rt_v12-rev0/mingw64/bin/../lib/gcc/x86_64-w64-mingw32/15.1.0/../../../../x86_64-w64-mingw32/lib/../lib/libmsvcrt.a(libapi-ms-win-crt-runtime-l1-1-0s00053.o)
 .idata$7       0x000000014000996c        0x4 C:/Users/lenovo/Downloads/x86_64-15.1.0-release-win32-seh-ucrt-rt_v12-rev0/mingw64/bin/../lib/gcc/x86_64-w64-mingw32/15.1.0/../../../../x86_64-w64-mingw32/lib/../lib/libmsvcrt.a(libapi-ms-win-crt-runtime-l1-1-0s00055.o)
 .idata$7       0x0000000140009970        0x4 C:/Users/lenovo/Downloads/x86_64-15.1.0-release-win32-seh-ucrt-rt_v12-rev0/mingw64/bin/../lib/gcc/x86_64-w64-mingw32/15.1.0/../../../../x86_64-w64-mingw32/lib/../lib/libmsvcrt.a(libapi-ms-win-crt-runtime-l1-1-0s00056.o)
 .idata$7       0x0000000140009974        0x4 C:/Users/lenovo/Downloads/x86_64-15.1.0-release-win32-seh-ucrt-rt_v12-rev0/mingw64/bin/../lib/gcc/x86_64-w64-mingw32/15.1.0/../../../../x86_64-w64-mingw32/lib/../lib/libmsvcrt.a(libapi-ms-win-crt-runtime-l1-1-0s00068.o)
 .idata$7       0x0000000140009978        0x4 C:/Users/lenovo/Downloads/x86_64-15.1.0-release-win32-seh-ucrt-rt_v12-rev0/mingw64/bin/../lib/gcc/x86_64-w64-mingw32/15.1.0/../../../../x86_64-w64-mingw32/lib/../lib/libmsvcrt.a(libapi-ms-win-crt-runtime-l1-1-0s00074.o)
 .idata$7       0x000000014000997c        0x4 C:/Users/lenovo/Downloads/x86_64-15.1.0-release-win32-seh-ucrt-rt_v12-rev0/mingw64/bin/../lib/gcc/x86_64-w64-mingw32/15.1.0/../../../../x86_64-w64-mingw32/lib/../lib/libmsvcrt.a(libapi-ms-win-crt-runtime-l1-1-0s00087.o)
 .idata$7       0x0000000140009980        0x4 C:/Users/lenovo/Downloads/x86_64-15.1.0-release-win32-seh-ucrt-rt_v12-rev0/mingw64/bin/../lib/gcc/x86_64-w64-mingw32/15.1.0/../../../../x86_64-w64-mingw32/lib/../lib/libmsvcrt.a(libapi-ms-win-crt-runtime-l1-1-0s00088.o)
 .idata$7       0x0000000140009984        0x4 C:/Users/lenovo/Downloads/x86_64-15.1.0-release-win32-seh-ucrt-rt_v12-rev0/mingw64/bin/../lib/gcc/x86_64-w64-mingw32/15.1.0/../../../../x86_64-w64-mingw32/lib/../lib/libmsvcrt.a(libapi-ms-win-crt-runtime-l1-1-0s00102.o)
 .idata$7       0x0000000140009988       0x24 C:/Users/lenovo/Downloads/x86_64-15.1.0-release-win32-seh-ucrt-rt_v12-rev0/mingw64/bin/../lib/gcc/x86_64-w64-mingw32/15.1.0/../../../../x86_64-w64-mingw32/lib/../lib/libmsvcrt.a(libapi-ms-win-crt-runtime-l1-1-0t.o)
                0x0000000140009988                __lib64_libapi_ms_win_crt_runtime_l1_1_0_a_iname
 .idata$7       0x00000001400099ac        0x4 C:/Users/lenovo/Downloads/x86_64-15.1.0-release-win32-seh-ucrt-rt_v12-rev0/mingw64/bin/../lib/gcc/x86_64-w64-mingw32/15.1.0/../../../../x86_64-w64-mingw32/lib/../lib/libmsvcrt.a(libapi-ms-win-crt-stdio-l1-1-0s00000.o)
 .idata$7       0x00000001400099b0        0x4 C:/Users/lenovo/Downloads/x86_64-15.1.0-release-win32-seh-ucrt-rt_v12-rev0/mingw64/bin/../lib/gcc/x86_64-w64-mingw32/15.1.0/../../../../x86_64-w64-mingw32/lib/../lib/libmsvcrt.a(libapi-ms-win-crt-stdio-l1-1-0s00001.o)
 .idata$7       0x00000001400099b4        0x4 C:/Users/lenovo/Downloads/x86_64-15.1.0-release-win32-seh-ucrt-rt_v12-rev0/mingw64/bin/../lib/gcc/x86_64-w64-mingw32/15.1.0/../../../../x86_64-w64-mingw32/lib/../lib/libmsvcrt.a(libapi-ms-win-crt-stdio-l1-1-0s00002.o)
 .idata$7       0x00000001400099b8        0x4 C:/Users/lenovo/Downloads/x86_64-15.1.0-release-win32-seh-ucrt-rt_v12-rev0/mingw64/bin/../lib/gcc/x86_64-w64-mingw32/15.1.0/../../../../x86_64-w64-mingw32/lib/../lib/libmsvcrt.a(libapi-ms-win-crt-stdio-l1-1-0s00003.o)
 .idata$7       0x00000001400099bc        0x4 C:/Users/lenovo/Downloads/x86_64-15.1.0-release-win32-seh-ucrt-rt_v12-rev0/mingw64/bin/../lib/gcc/x86_64-w64-mingw32/15.1.0/../../../../x86_64-w64-mingw32/lib/../lib/libmsvcrt.a(libapi-ms-win-crt-stdio-l1-1-0s00007.o)
 .idata$7       0x00000001400099c0        0x4 C:/Users/lenovo/Downloads/x86_64-15.1.0-release-win32-seh-ucrt-rt_v12-rev0/mingw64/bin/../lib/gcc/x86_64-w64-mingw32/15.1.0/../../../../x86_64-w64-mingw32/lib/../lib/libmsvcrt.a(libapi-ms-win-crt-stdio-l1-1-0s00169.o)
 .idata$7       0x00000001400099c4       0x20 C:/Users/lenovo/Downloads/x86_64-15.1.0-release-win32-seh-ucrt-rt_v12-rev0/mingw64/bin/../lib/gcc/x86_64-w64-mingw32/15.1.0/../../../../x86_64-w64-mingw32/lib/../lib/libmsvcrt.a(libapi-ms-win-crt-stdio-l1-1-0t.o)
                0x00000001400099c4                __lib64_libapi_ms_win_crt_stdio_l1_1_0_a_iname
 .idata$7       0x00000001400099e4        0x4 C:/Users/lenovo/Downloads/x86_64-15.1.0-release-win32-seh-ucrt-rt_v12-rev0/mingw64/bin/../lib/gcc/x86_64-w64-mingw32/15.1.0/../../../../x86_64-w64-mingw32/lib/../lib/libmsvcrt.a(libapi-ms-win-crt-string-l1-1-0s00167.o)
 .idata$7       0x00000001400099e8        0x4 C:/Users/lenovo/Downloads/x86_64-15.1.0-release-win32-seh-ucrt-rt_v12-rev0/mingw64/bin/../lib/gcc/x86_64-w64-mingw32/15.1.0/../../../../x86_64-w64-mingw32/lib/../lib/libmsvcrt.a(libapi-ms-win-crt-string-l1-1-0s00170.o)
 .idata$7       0x00000001400099ec       0x24 C:/Users/lenovo/Downloads/x86_64-15.1.0-release-win32-seh-ucrt-rt_v12-rev0/mingw64/bin/../lib/gcc/x86_64-w64-mingw32/15.1.0/../../../../x86_64-w64-mingw32/lib/../lib/libmsvcrt.a(libapi-ms-win-crt-string-l1-1-0t.o)
                0x00000001400099ec                __lib64_libapi_ms_win_crt_string_l1_1_0_a_iname
 .idata$7       0x0000000140009a10        0x4 C:/Users/lenovo/Downloads/x86_64-15.1.0-release-win32-seh-ucrt-rt_v12-rev0/mingw64/bin/../lib/gcc/x86_64-w64-mingw32/15.1.0/../../../../x86_64-w64-mingw32/lib/../lib/libmsvcrt.a(libapi-ms-win-crt-time-l1-1-0s00010.o)
 .idata$7       0x0000000140009a14        0x4 C:/Users/lenovo/Downloads/x86_64-15.1.0-release-win32-seh-ucrt-rt_v12-rev0/mingw64/bin/../lib/gcc/x86_64-w64-mingw32/15.1.0/../../../../x86_64-w64-mingw32/lib/../lib/libmsvcrt.a(libapi-ms-win-crt-time-l1-1-0s00012.o)
 .idata$7       0x0000000140009a18        0x4 C:/Users/lenovo/Downloads/x86_64-15.1.0-release-win32-seh-ucrt-rt_v12-rev0/mingw64/bin/../lib/gcc/x86_64-w64-mingw32/15.1.0/../../../../x86_64-w64-mingw32/lib/../lib/libmsvcrt.a(libapi-ms-win-crt-time-l1-1-0s00013.o)
 .idata$7       0x0000000140009a1c        0x4 C:/Users/lenovo/Downloads/x86_64-15.1.0-release-win32-seh-ucrt-rt_v12-rev0/mingw64/bin/../lib/gcc/x86_64-w64-mingw32/15.1.0/../../../../x86_64-w64-mingw32/lib/../lib/libmsvcrt.a(libapi-ms-win-crt-time-l1-1-0s00061.o)
 .idata$7       0x0000000140009a20       0x20 C:/Users/lenovo/Downloads/x86_64-15.1.0-release-win32-seh-ucrt-rt_v12-rev0/mingw64/bin/../lib/gcc/x86_64-w64-mingw32/15.1.0/../../../../x86_64-w64-mingw32/lib/../lib/libmsvcrt.a(libapi-ms-win-crt-time-l1-1-0t.o)
                0x0000000140009a20                __lib64_libapi_ms_win_crt_time_l1_1_0_a_iname
 .idata$7       0x0000000140009a40        0x4 C:/Users/lenovo/Downloads/x86_64-15.1.0-release-win32-seh-ucrt-rt_v12-rev0/mingw64/bin/../lib/gcc/x86_64-w64-mingw32/15.1.0/libstdc++.dll.a(libstdc___6_dll_d001917.o)
 .idata$7       0x0000000140009a44        0x4 C:/Users/lenovo/Downloads/x86_64-15.1.0-release-win32-seh-ucrt-rt_v12-rev0/mingw64/bin/../lib/gcc/x86_64-w64-mingw32/15.1.0/libstdc++.dll.a(libstdc___6_dll_d001926.o)
 .idata$7       0x0000000140009a48        0x4 C:/Users/lenovo/Downloads/x86_64-15.1.0-release-win32-seh-ucrt-rt_v12-rev0/mingw64/bin/../lib/gcc/x86_64-w64-mingw32/15.1.0/libstdc++.dll.a(libstdc___6_dll_d005599.o)
 .idata$7       0x0000000140009a4c        0x4 C:/Users/lenovo/Downloads/x86_64-15.1.0-release-win32-seh-ucrt-rt_v12-rev0/mingw64/bin/../lib/gcc/x86_64-w64-mingw32/15.1.0/libstdc++.dll.a(libstdc___6_dll_d005600.o)
 .idata$7       0x0000000140009a50       0x10 C:/Users/lenovo/Downloads/x86_64-15.1.0-release-win32-seh-ucrt-rt_v12-rev0/mingw64/bin/../lib/gcc/x86_64-w64-mingw32/15.1.0/libstdc++.dll.a(libstdc___6_dll_d006872.o)
                0x0000000140009a50                libstdc___6_dll_iname

.tls            0x000000014000a000      0x200
                0x000000014000a000                ___tls_start__ = .
 *(.tls$AAA)
 *(.tls)
 .tls           0x000000014000a000        0x8 C:/Users/lenovo/Downloads/x86_64-15.1.0-release-win32-seh-ucrt-rt_v12-rev0/mingw64/bin/../lib/gcc/x86_64-w64-mingw32/15.1.0/../../../../x86_64-w64-mingw32/lib/../lib/libmingw32.a(lib64_libmingw32_a-tlssup.o)
                0x000000014000a000                _tls_start
 *(.tls$)
 *(SORT_BY_NAME(.tls$*))
 .tls$ZZZ       0x000000014000a008        0x8 C:/Users/lenovo/Downloads/x86_64-15.1.0-release-win32-seh-ucrt-rt_v12-rev0/mingw64/bin/../lib/gcc/x86_64-w64-mingw32/15.1.0/../../../../x86_64-w64-mingw32/lib/../lib/libmingw32.a(lib64_libmingw32_a-tlssup.o)
                0x000000014000a008                _tls_end
 *(.tls$ZZZ)
                0x000000014000a010                ___tls_end__ = .

.endjunk        0x000000014000b000        0x0
                [!provide]                        PROVIDE (end = .)
                [!provide]                        PROVIDE (_end = .)
                0x000000014000b000                __end__ = .

.rsrc
 *(.rsrc)
 *(.rsrc$*)

.reloc          0x000000014000b000      0x200
 *(.reloc)
 .reloc         0x000000014000b000       0x88 dll stuff

.stab
 *(.stab)

.stabstr
 *(.stabstr)

.debug_aranges  0x000000014000c000      0x200
 *(.debug_aranges)
 .debug_aranges
                0x000000014000c000       0x30 build/o/Static.o
 .debug_aranges
                0x000000014000c030       0x30 build/o/test.o
 .debug_aranges
                0x000000014000c060       0x30 C:/Users/lenovo/Downloads/x86_64-15.1.0-release-win32-seh-ucrt-rt_v12-rev0/mingw64/bin/../lib/gcc/x86_64-w64-mingw32/15.1.0/libgcc.a(_chkstk_ms.o)
 .debug_aranges
                0x000000014000c090       0x20 C:/Users/lenovo/Downloads/x86_64-15.1.0-release-win32-seh-ucrt-rt_v12-rev0/mingw64/bin/../lib/gcc/x86_64-w64-mingw32/15.1.0/libgcc.a(_ctors.o)

.zdebug_aranges
 *(.zdebug_aranges)

.debug_pubnames
 *(.debug_pubnames)

.zdebug_pubnames
 *(.zdebug_pubnames)

.debug_info     0x000000014000d000     0x4200
 *(.debug_info .gnu.linkonce.wi.*)
 .debug_info    0x000000014000d000      0x106 build/o/Static.o
 .debug_info    0x000000014000d106     0x2e7d build/o/test.o
 .debug_info    0x000000014000ff83       0x28 C:/Users/lenovo/Downloads/x86_64-15.1.0-release-win32-seh-ucrt-rt_v12-rev0/mingw64/bin/../lib/gcc/x86_64-w64-mingw32/15.1.0/libgcc.a(_chkstk_ms.o)
 .debug_info    0x000000014000ffab     0x117e C:/Users/lenovo/Downloads/x86_64-15.1.0-release-win32-seh-ucrt-rt_v12-rev0/mingw64/bin/../lib/gcc/x86_64-w64-mingw32/15.1.0/libgcc.a(_ctors.o)

.zdebug_info
 *(.zdebug_info .zdebug.gnu.linkonce.wi.*)

.debug_abbrev   0x0000000140012000      0x600
 *(.debug_abbrev)
 .debug_abbrev  0x0000000140012000       0x51 build/o/Static.o
 .debug_abbrev  0x0000000140012051      0x4b5 build/o/test.o
 .debug_abbrev  0x0000000140012506       0x14 C:/Users/lenovo/Downloads/x86_64-15.1.0-release-win32-seh-ucrt-rt_v12-rev0/mingw64/bin/../lib/gcc/x86_64-w64-mingw32/15.1.0/libgcc.a(_chkstk_ms.o)
 .debug_abbrev  0x000000014001251a       0xa1 C:/Users/lenovo/Downloads/x86_64-15.1.0-release-win32-seh-ucrt-rt_v12-rev0/mingw64/bin/../lib/gcc/x86_64-w64-mingw32/15.1.0/libgcc.a(_ctors.o)

.zdebug_abbrev
 *(.zdebug_abbrev)

.debug_line     0x0000000140013000     0x1200
 *(.debug_line)
 .debug_line    0x0000000140013000       0x59 build/o/Static.o
 .debug_line    0x0000000140013059      0xf0c build/o/test.o
 .debug_line    0x0000000140013f65       0x5c C:/Users/lenovo/Downloads/x86_64-15.1.0-release-win32-seh-ucrt-rt_v12-rev0/mingw64/bin/../lib/gcc/x86_64-w64-mingw32/15.1.0/libgcc.a(_chkstk_ms.o)
 .debug_line    0x0000000140013fc1       0x48 C:/Users/lenovo/Downloads/x86_64-15.1.0-release-win32-seh-ucrt-rt_v12-rev0/mingw64/bin/../lib/gcc/x86_64-w64-mingw32/15.1.0/libgcc.a(_ctors.o)

.zdebug_line
 *(.zdebug_line)

.debug_frame    0x0000000140015000      0x200
 *(.debug_frame*)
 .debug_frame   0x0000000140015000       0x40 build/o/Static.o
 .debug_frame   0x0000000140015040       0x40 build/o/test.o
 .debug_frame   0x0000000140015080       0x48 C:/Users/lenovo/Downloads/x86_64-15.1.0-release-win32-seh-ucrt-rt_v12-rev0/mingw64/bin/../lib/gcc/x86_64-w64-mingw32/15.1.0/libgcc.a(_chkstk_ms.o)

.zdebug_frame
 *(.zdebug_frame*)

.debug_str      0x0000000140016000      0x200
 *(.debug_str)
 .debug_str     0x0000000140016000        0x0 build/o/Static.o
 .debug_str     0x0000000140016000       0x4f build/o/test.o
 .debug_str     0x000000014001604f       0xa3 C:/Users/lenovo/Downloads/x86_64-15.1.0-release-win32-seh-ucrt-rt_v12-rev0/mingw64/bin/../lib/gcc/x86_64-w64-mingw32/15.1.0/libgcc.a(_chkstk_ms.o)
 .debug_str     0x00000001400160f2        0x0 C:/Users/lenovo/Downloads/x86_64-15.1.0-release-win32-seh-ucrt-rt_v12-rev0/mingw64/bin/../lib/gcc/x86_64-w64-mingw32/15.1.0/libgcc.a(_ctors.o)

.zdebug_str
 *(.zdebug_str)

.debug_loc
 *(.debug_loc)

.zdebug_loc
 *(.zdebug_loc)

.debug_macinfo
 *(.debug_macinfo)

.zdebug_macinfo
 *(.zdebug_macinfo)

.debug_weaknames
 *(.debug_weaknames)

.zdebug_weaknames
 *(.zdebug_weaknames)

.debug_funcnames
 *(.debug_funcnames)

.zdebug_funcnames
 *(.zdebug_funcnames)

.debug_typenames
 *(.debug_typenames)

.zdebug_typenames
 *(.zdebug_typenames)

.debug_varnames
 *(.debug_varnames)

.zdebug_varnames
 *(.zdebug_varnames)

.debug_pubtypes
 *(.debug_pubtypes)

.zdebug_pubtypes
 *(.zdebug_pubtypes)

.debug_ranges
 *(.debug_ranges)

.zdebug_ranges
 *(.zdebug_ranges)

.debug_types
 *(.debug_types .gnu.linkonce.wt.*)

.zdebug_types
 *(.zdebug_types .gnu.linkonce.wt.*)

.debug_addr
 *(.debug_addr)

.zdebug_addr
 *(.zdebug_addr)

.debug_line_str
                0x0000000140017000      0x200
 *(.debug_line_str)
 .debug_line_str
                0x0000000140017000       0x97 C:/Users/lenovo/Downloads/x86_64-15.1.0-release-win32-seh-ucrt-rt_v12-rev0/mingw64/bin/../lib/gcc/x86_64-w64-mingw32/15.1.0/libgcc.a(_chkstk_ms.o)
 .debug_line_str
                0x0000000140017097      0x161 C:/Users/lenovo/Downloads/x86_64-15.1.0-release-win32-seh-ucrt-rt_v12-rev0/mingw64/bin/../lib/gcc/x86_64-w64-mingw32/15.1.0/libgcc.a(_ctors.o)

.zdebug_line_str
 *(.zdebug_line_str)

.debug_loclists
 *(.debug_loclists)

.zdebug_loclists
 *(.zdebug_loclists)

.debug_macro    0x0000000140018000    0x37800
 *(.debug_macro)
 .debug_macro   0x0000000140018000     0x3bea build/o/Static.o
 .debug_macro   0x000000014001bbea    0x33a86 build/o/test.o

.zdebug_macro
 *(.zdebug_macro)

.debug_names
 *(.debug_names)

.zdebug_names
 *(.zdebug_names)

.debug_rnglists
 *(.debug_rnglists)

.zdebug_rnglists
 *(.zdebug_rnglists)

.debug_str_offsets
 *(.debug_str_offsets)

.zdebug_str_offsets
 *(.zdebug_str_offsets)

.debug_sup
 *(.debug_sup)

.debug_gdb_scripts
 *(.debug_gdb_scripts)

.zdebug_gdb_scripts
 *(.zdebug_gdb_scripts)
OUTPUT(build/bin/my_program.exe pei-x86-64)
LOAD my_program_exe_rtr000000.o
LOAD my_program_exe_ertr000001.o
LOAD dll stuff
